
simpleserial-base-CW308_STM32F3.elf:     file format elf32-littlearm

Sections:
Idx Name          Size      VMA       LMA       File off  Algn
  0 .isr_vector   00000188  08000000  08000000  00010000  2**0
                  CONTENTS, ALLOC, LOAD, READONLY, DATA
  1 .text         00001640  08000188  08000188  00010188  2**2
                  CONTENTS, ALLOC, LOAD, READONLY, CODE
  2 .rodata       000001a4  080017c8  080017c8  000117c8  2**2
                  CONTENTS, ALLOC, LOAD, READONLY, DATA
  3 .ARM.extab    00000000  0800196c  0800196c  00020064  2**0
                  CONTENTS
  4 .ARM          00000000  0800196c  0800196c  00020064  2**0
                  CONTENTS
  5 .preinit_array 00000000  0800196c  0800196c  00020064  2**0
                  CONTENTS, ALLOC, LOAD, DATA
  6 .init_array   00000004  0800196c  0800196c  0001196c  2**2
                  CONTENTS, ALLOC, LOAD, DATA
  7 .fini_array   00000004  08001970  08001970  00011970  2**2
                  CONTENTS, ALLOC, LOAD, DATA
  8 .data         00000064  20000000  08001974  00020000  2**2
                  CONTENTS, ALLOC, LOAD, DATA
  9 .bss          000001bc  20000064  080019d8  00020064  2**2
                  ALLOC
 10 ._user_heap_stack 00000400  20000220  080019d8  00020220  2**0
                  ALLOC
 11 .ARM.attributes 0000002a  00000000  00000000  00020064  2**0
                  CONTENTS, READONLY
 12 .debug_info   0000479a  00000000  00000000  0002008e  2**0
                  CONTENTS, READONLY, DEBUGGING, OCTETS
 13 .debug_abbrev 00000c99  00000000  00000000  00024828  2**0
                  CONTENTS, READONLY, DEBUGGING, OCTETS
 14 .debug_loc    00002556  00000000  00000000  000254c1  2**0
                  CONTENTS, READONLY, DEBUGGING, OCTETS
 15 .debug_aranges 000001d8  00000000  00000000  00027a17  2**0
                  CONTENTS, READONLY, DEBUGGING, OCTETS
 16 .debug_ranges 00000488  00000000  00000000  00027bef  2**0
                  CONTENTS, READONLY, DEBUGGING, OCTETS
 17 .debug_line   00002769  00000000  00000000  00028077  2**0
                  CONTENTS, READONLY, DEBUGGING, OCTETS
 18 .debug_str    0000142e  00000000  00000000  0002a7e0  2**0
                  CONTENTS, READONLY, DEBUGGING, OCTETS
 19 .comment      0000004d  00000000  00000000  0002bc0e  2**0
                  CONTENTS, READONLY
 20 .debug_frame  00000798  00000000  00000000  0002bc5c  2**2
                  CONTENTS, READONLY, DEBUGGING, OCTETS
 21 .stab         00000144  00000000  00000000  0002c3f4  2**2
                  CONTENTS, READONLY, DEBUGGING
 22 .stabstr      00000054  00000000  00000000  0002c538  2**0
                  CONTENTS, READONLY, DEBUGGING

Disassembly of section .text:

08000188 <__do_global_dtors_aux>:
 8000188:	b510      	push	{r4, lr}
 800018a:	4c05      	ldr	r4, [pc, #20]	; (80001a0 <__do_global_dtors_aux+0x18>)
 800018c:	7823      	ldrb	r3, [r4, #0]
 800018e:	b933      	cbnz	r3, 800019e <__do_global_dtors_aux+0x16>
 8000190:	4b04      	ldr	r3, [pc, #16]	; (80001a4 <__do_global_dtors_aux+0x1c>)
 8000192:	b113      	cbz	r3, 800019a <__do_global_dtors_aux+0x12>
 8000194:	4804      	ldr	r0, [pc, #16]	; (80001a8 <__do_global_dtors_aux+0x20>)
 8000196:	f3af 8000 	nop.w
 800019a:	2301      	movs	r3, #1
 800019c:	7023      	strb	r3, [r4, #0]
 800019e:	bd10      	pop	{r4, pc}
 80001a0:	20000064 	.word	0x20000064
 80001a4:	00000000 	.word	0x00000000
 80001a8:	080017b0 	.word	0x080017b0

080001ac <frame_dummy>:
 80001ac:	b508      	push	{r3, lr}
 80001ae:	4b03      	ldr	r3, [pc, #12]	; (80001bc <frame_dummy+0x10>)
 80001b0:	b11b      	cbz	r3, 80001ba <frame_dummy+0xe>
 80001b2:	4903      	ldr	r1, [pc, #12]	; (80001c0 <frame_dummy+0x14>)
 80001b4:	4803      	ldr	r0, [pc, #12]	; (80001c4 <frame_dummy+0x18>)
 80001b6:	f3af 8000 	nop.w
 80001ba:	bd08      	pop	{r3, pc}
 80001bc:	00000000 	.word	0x00000000
 80001c0:	20000068 	.word	0x20000068
 80001c4:	080017b0 	.word	0x080017b0

080001c8 <get_key>:
	free(p);
}
uint8_t get_key(uint8_t* k, uint8_t len)
{
	// Load key here
	for (uint8_t i=0;i<len;i++){
 80001c8:	4b05      	ldr	r3, [pc, #20]	; (80001e0 <get_key+0x18>)
 80001ca:	4401      	add	r1, r0
 80001cc:	4288      	cmp	r0, r1
 80001ce:	d101      	bne.n	80001d4 <get_key+0xc>
		key[i] = k[i] ;
	}
	return 0x00;
}
 80001d0:	2000      	movs	r0, #0
 80001d2:	4770      	bx	lr
		key[i] = k[i] ;
 80001d4:	f810 2b01 	ldrb.w	r2, [r0], #1
 80001d8:	f803 2b01 	strb.w	r2, [r3], #1
	for (uint8_t i=0;i<len;i++){
 80001dc:	e7f6      	b.n	80001cc <get_key+0x4>
 80001de:	bf00      	nop
 80001e0:	20000080 	.word	0x20000080

080001e4 <byte2word>:
	*out = 0;
 80001e4:	2300      	movs	r3, #0
 80001e6:	600b      	str	r3, [r1, #0]
	*out = ((uint32_t)in[0] << (24) )^ (*out);
 80001e8:	7803      	ldrb	r3, [r0, #0]
 80001ea:	061b      	lsls	r3, r3, #24
 80001ec:	600b      	str	r3, [r1, #0]
	*out = ((uint32_t)in[1] << (24 - 1 * 8)) ^ (*out);
 80001ee:	7842      	ldrb	r2, [r0, #1]
 80001f0:	ea43 4302 	orr.w	r3, r3, r2, lsl #16
 80001f4:	600b      	str	r3, [r1, #0]
	*out = ((uint32_t)in[2] << (24 - 2 * 8)) ^ (*out);
 80001f6:	7882      	ldrb	r2, [r0, #2]
 80001f8:	ea43 2302 	orr.w	r3, r3, r2, lsl #8
 80001fc:	600b      	str	r3, [r1, #0]
	*out = ((uint32_t)in[3] << (24 - 3 * 8)) ^ (*out);
 80001fe:	78c2      	ldrb	r2, [r0, #3]
 8000200:	4053      	eors	r3, r2
 8000202:	600b      	str	r3, [r1, #0]
}
 8000204:	4770      	bx	lr

08000206 <word2byte>:
	*(out) = (*in) >> (24 );
 8000206:	78c3      	ldrb	r3, [r0, #3]
 8000208:	700b      	strb	r3, [r1, #0]
	*(out + 1) = (*in) >> (24 -  8);
 800020a:	8843      	ldrh	r3, [r0, #2]
 800020c:	704b      	strb	r3, [r1, #1]
	*(out + 2) = (*in) >> (24 - 2 * 8);
 800020e:	6803      	ldr	r3, [r0, #0]
 8000210:	0a1b      	lsrs	r3, r3, #8
 8000212:	708b      	strb	r3, [r1, #2]
	*(out + 3) = (*in) >> (24 - 3 * 8);
 8000214:	6803      	ldr	r3, [r0, #0]
 8000216:	70cb      	strb	r3, [r1, #3]
}
 8000218:	4770      	bx	lr
 800021a:	0000      	movs	r0, r0

0800021c <func_key>:
{
 800021c:	b507      	push	{r0, r1, r2, lr}
	uint8_t temp[4] = { 0x00 };
 800021e:	2300      	movs	r3, #0
	word2byte(input, temp);
 8000220:	a901      	add	r1, sp, #4
	uint8_t temp[4] = { 0x00 };
 8000222:	9301      	str	r3, [sp, #4]
	word2byte(input, temp);
 8000224:	f7ff ffef 	bl	8000206 <word2byte>
	*(temp) = TBL_SBOX[*(temp )];
 8000228:	4b11      	ldr	r3, [pc, #68]	; (8000270 <func_key+0x54>)
 800022a:	f89d 1004 	ldrb.w	r1, [sp, #4]
 800022e:	5c59      	ldrb	r1, [r3, r1]
 8000230:	f88d 1004 	strb.w	r1, [sp, #4]
	*(temp + 1) = TBL_SBOX[*(temp + 1)];
 8000234:	f89d 1005 	ldrb.w	r1, [sp, #5]
 8000238:	5c59      	ldrb	r1, [r3, r1]
 800023a:	f88d 1005 	strb.w	r1, [sp, #5]
	*(temp + 2) = TBL_SBOX[*(temp + 2)];
 800023e:	f89d 1006 	ldrb.w	r1, [sp, #6]
 8000242:	5c59      	ldrb	r1, [r3, r1]
 8000244:	f88d 1006 	strb.w	r1, [sp, #6]
	*(temp + 3) = TBL_SBOX[*(temp + 3)];
 8000248:	f89d 1007 	ldrb.w	r1, [sp, #7]
 800024c:	5c5b      	ldrb	r3, [r3, r1]
 800024e:	f88d 3007 	strb.w	r3, [sp, #7]
	byte2word(temp, input);
 8000252:	4601      	mov	r1, r0
 8000254:	a801      	add	r0, sp, #4
 8000256:	f7ff ffc5 	bl	80001e4 <byte2word>
	uint32_t data2 = *input;
 800025a:	680a      	ldr	r2, [r1, #0]
	*data = (*data << length) ^ (*data >> (32 - length));
 800025c:	ea4f 43f2 	mov.w	r3, r2, ror #19
	*input = (*input)^(*verse2)^(*verse3);
 8000260:	ea83 2372 	eor.w	r3, r3, r2, ror #9
 8000264:	4053      	eors	r3, r2
 8000266:	600b      	str	r3, [r1, #0]
}
 8000268:	b003      	add	sp, #12
 800026a:	f85d fb04 	ldr.w	pc, [sp], #4
 800026e:	bf00      	nop
 8000270:	080017c8 	.word	0x080017c8

08000274 <func_data>:
{
 8000274:	b507      	push	{r0, r1, r2, lr}
	uint8_t temp[4]={0x00};//the buffer of the bytes
 8000276:	2300      	movs	r3, #0
	word2byte(input, temp);//把输入的字转化为四个字节
 8000278:	a901      	add	r1, sp, #4
	uint8_t temp[4]={0x00};//the buffer of the bytes
 800027a:	9301      	str	r3, [sp, #4]
	word2byte(input, temp);//把输入的字转化为四个字节
 800027c:	f7ff ffc3 	bl	8000206 <word2byte>
	*(temp) = TBL_SBOX[*(temp )];
 8000280:	4b13      	ldr	r3, [pc, #76]	; (80002d0 <func_data+0x5c>)
 8000282:	f89d 1004 	ldrb.w	r1, [sp, #4]
 8000286:	5c59      	ldrb	r1, [r3, r1]
 8000288:	f88d 1004 	strb.w	r1, [sp, #4]
	*(temp + 1) = TBL_SBOX[*(temp + 1)];
 800028c:	f89d 1005 	ldrb.w	r1, [sp, #5]
 8000290:	5c59      	ldrb	r1, [r3, r1]
 8000292:	f88d 1005 	strb.w	r1, [sp, #5]
	*(temp + 2) = TBL_SBOX[*(temp + 2)];
 8000296:	f89d 1006 	ldrb.w	r1, [sp, #6]
 800029a:	5c59      	ldrb	r1, [r3, r1]
 800029c:	f88d 1006 	strb.w	r1, [sp, #6]
	*(temp + 3) = TBL_SBOX[*(temp + 3)];
 80002a0:	f89d 1007 	ldrb.w	r1, [sp, #7]
 80002a4:	5c5b      	ldrb	r3, [r3, r1]
 80002a6:	f88d 3007 	strb.w	r3, [sp, #7]
	byte2word(temp, input);
 80002aa:	4601      	mov	r1, r0
 80002ac:	a801      	add	r0, sp, #4
 80002ae:	f7ff ff99 	bl	80001e4 <byte2word>
	uint32_t data2=*input;
 80002b2:	680a      	ldr	r2, [r1, #0]
	*data = (*data << length) ^ (*data >> (32 - length));
 80002b4:	ea4f 73b2 	mov.w	r3, r2, ror #30
	*input=(*input)^(*verse2)^(*verse3)^(*verse4)^(*verse5);
 80002b8:	ea83 53b2 	eor.w	r3, r3, r2, ror #22
 80002bc:	4053      	eors	r3, r2
 80002be:	ea83 33b2 	eor.w	r3, r3, r2, ror #14
 80002c2:	ea83 2332 	eor.w	r3, r3, r2, ror #8
 80002c6:	600b      	str	r3, [r1, #0]
}
 80002c8:	b003      	add	sp, #12
 80002ca:	f85d fb04 	ldr.w	pc, [sp], #4
 80002ce:	bf00      	nop
 80002d0:	080017c8 	.word	0x080017c8

080002d4 <encode_fun>:
{
 80002d4:	e92d 4ff0 	stmdb	sp!, {r4, r5, r6, r7, r8, r9, sl, fp, lr}
 80002d8:	4606      	mov	r6, r0
 80002da:	b0cf      	sub	sp, #316	; 0x13c
	uint8_t* p = (uint8_t*)malloc(50);      //定义一个50字节缓存区
 80002dc:	2032      	movs	r0, #50	; 0x32
{
 80002de:	460d      	mov	r5, r1
 80002e0:	4614      	mov	r4, r2
	uint8_t* p = (uint8_t*)malloc(50);      //定义一个50字节缓存区
 80002e2:	f001 f97d 	bl	80015e0 <malloc>
	uint32_t KeyTmpList[4] = { 0 };   //存储密钥的u32数据
 80002e6:	2210      	movs	r2, #16
 80002e8:	2100      	movs	r1, #0
	uint8_t* p = (uint8_t*)malloc(50);      //定义一个50字节缓存区
 80002ea:	4607      	mov	r7, r0
	uint32_t KeyTmpList[4] = { 0 };   //存储密钥的u32数据
 80002ec:	a802      	add	r0, sp, #8
 80002ee:	f001 f995 	bl	800161c <memset>
	uint32_t KeyList[36] = { 0 };     //用于密钥扩展算法与系统参数FK运算后的结果存储
 80002f2:	2280      	movs	r2, #128	; 0x80
 80002f4:	2100      	movs	r1, #0
 80002f6:	a80a      	add	r0, sp, #40	; 0x28
 80002f8:	f001 f990 	bl	800161c <memset>
	uint32_t DataList[36] = { 0 };    //用于存放加密数据
 80002fc:	2290      	movs	r2, #144	; 0x90
 80002fe:	2100      	movs	r1, #0
 8000300:	a82a      	add	r0, sp, #168	; 0xa8
 8000302:	f001 f98b 	bl	800161c <memset>
	byte2word(key, &(KeyTmpList[0]));//存到主密钥 第一个字 
 8000306:	4628      	mov	r0, r5
 8000308:	a902      	add	r1, sp, #8
 800030a:	f7ff ff6b 	bl	80001e4 <byte2word>
	byte2word(key + 4, &(KeyTmpList[1]));//存到主密钥的第二个字 
 800030e:	1d28      	adds	r0, r5, #4
 8000310:	a903      	add	r1, sp, #12
 8000312:	f7ff ff67 	bl	80001e4 <byte2word>
	byte2word(key + 8, &(KeyTmpList[2]));
 8000316:	f105 0008 	add.w	r0, r5, #8
 800031a:	a904      	add	r1, sp, #16
 800031c:	f7ff ff62 	bl	80001e4 <byte2word>
	byte2word(key + 12, &(KeyTmpList[3]));
 8000320:	f105 000c 	add.w	r0, r5, #12
 8000324:	a905      	add	r1, sp, #20
 8000326:	f7ff ff5d 	bl	80001e4 <byte2word>
	KeyList[0] = KeyTmpList[0] ^ TBL_SYS_PARAMS[0];
 800032a:	9a02      	ldr	r2, [sp, #8]
 800032c:	4b47      	ldr	r3, [pc, #284]	; (800044c <encode_fun+0x178>)
 800032e:	f8df 9120 	ldr.w	r9, [pc, #288]	; 8000450 <encode_fun+0x17c>
 8000332:	4053      	eors	r3, r2
 8000334:	9306      	str	r3, [sp, #24]
	KeyList[1] = KeyTmpList[1] ^ TBL_SYS_PARAMS[1];
 8000336:	9a03      	ldr	r2, [sp, #12]
 8000338:	4b46      	ldr	r3, [pc, #280]	; (8000454 <encode_fun+0x180>)
 800033a:	4053      	eors	r3, r2
 800033c:	9307      	str	r3, [sp, #28]
	KeyList[2] = KeyTmpList[2] ^ TBL_SYS_PARAMS[2];
 800033e:	9a04      	ldr	r2, [sp, #16]
 8000340:	4b45      	ldr	r3, [pc, #276]	; (8000458 <encode_fun+0x184>)
 8000342:	4053      	eors	r3, r2
 8000344:	9308      	str	r3, [sp, #32]
	KeyList[3] = KeyTmpList[3] ^ TBL_SYS_PARAMS[3];
 8000346:	9a05      	ldr	r2, [sp, #20]
 8000348:	4b44      	ldr	r3, [pc, #272]	; (800045c <encode_fun+0x188>)
 800034a:	4053      	eors	r3, r2
 800034c:	9309      	str	r3, [sp, #36]	; 0x24
	for (i = 0; i < 32; i++)             //32次循环迭代运算
 800034e:	ad06      	add	r5, sp, #24
 8000350:	f04f 0800 	mov.w	r8, #0
		uint32_t interdata=KeyList[i + 1] ^ KeyList[i + 2] ^ KeyList[i + 3] ^ TBL_FIX_PARAMS[i];
 8000354:	e9d5 3201 	ldrd	r3, r2, [r5, #4]
 8000358:	68e9      	ldr	r1, [r5, #12]
 800035a:	f859 0b04 	ldr.w	r0, [r9], #4
 800035e:	4053      	eors	r3, r2
 8000360:	46aa      	mov	sl, r5
 8000362:	404b      	eors	r3, r1
 8000364:	4043      	eors	r3, r0
		func_key(&interdata);
 8000366:	a801      	add	r0, sp, #4
		uint32_t interdata=KeyList[i + 1] ^ KeyList[i + 2] ^ KeyList[i + 3] ^ TBL_FIX_PARAMS[i];
 8000368:	9301      	str	r3, [sp, #4]
		func_key(&interdata);
 800036a:	f7ff ff57 	bl	800021c <func_key>
		KeyList[i + 4] = KeyList[i] ^ interdata;
 800036e:	f8da 3000 	ldr.w	r3, [sl]
 8000372:	9a01      	ldr	r2, [sp, #4]
		uint32_t interdata=KeyList[i + 1] ^ KeyList[i + 2] ^ KeyList[i + 3] ^ TBL_FIX_PARAMS[i];
 8000374:	f108 0801 	add.w	r8, r8, #1
 8000378:	3504      	adds	r5, #4
		KeyList[i + 4] = KeyList[i] ^ interdata;
 800037a:	4053      	eors	r3, r2
	for (i = 0; i < 32; i++)             //32次循环迭代运算
 800037c:	f1b8 0f20 	cmp.w	r8, #32
		KeyList[i + 4] = KeyList[i] ^ interdata;
 8000380:	60eb      	str	r3, [r5, #12]
	for (i = 0; i < 32; i++)             //32次循环迭代运算
 8000382:	d1e7      	bne.n	8000354 <encode_fun+0x80>
		*(p + i) = *(input + i);
 8000384:	4632      	mov	r2, r6
 8000386:	4621      	mov	r1, r4
		*(p + len + i) = 0;
 8000388:	f006 050f 	and.w	r5, r6, #15
		*(p + i) = *(input + i);
 800038c:	4638      	mov	r0, r7
 800038e:	f001 f937 	bl	8001600 <memcpy>
		*(p + len + i) = 0;
 8000392:	f1c5 0210 	rsb	r2, r5, #16
 8000396:	2100      	movs	r1, #0
 8000398:	19b8      	adds	r0, r7, r6
 800039a:	f001 f93f 	bl	800161c <memset>
	for (j = 0; j < len / 16 + ((len % 16) ? 1 : 0); j++)  //进行循环加密,并将加密后数据保存（可以看出此处是以16字节为一次加密，进行循环，即若16字节则进行一次，17字节补0至32字节后进行加密两次，以此类推）
 800039e:	3d00      	subs	r5, #0
 80003a0:	bf18      	it	ne
 80003a2:	2501      	movne	r5, #1
 80003a4:	eb05 1516 	add.w	r5, r5, r6, lsr #4
 80003a8:	46b8      	mov	r8, r7
 80003aa:	eb04 1505 	add.w	r5, r4, r5, lsl #4
 80003ae:	42ac      	cmp	r4, r5
 80003b0:	d105      	bne.n	80003be <encode_fun+0xea>
	free(p);
 80003b2:	4638      	mov	r0, r7
}
 80003b4:	b04f      	add	sp, #316	; 0x13c
 80003b6:	e8bd 4ff0 	ldmia.w	sp!, {r4, r5, r6, r7, r8, r9, sl, fp, lr}
	free(p);
 80003ba:	f001 b919 	b.w	80015f0 <free>
		byte2word(p + 16 * j, &(DataList[0]));
 80003be:	a92a      	add	r1, sp, #168	; 0xa8
 80003c0:	4640      	mov	r0, r8
 80003c2:	f7ff ff0f 	bl	80001e4 <byte2word>
		byte2word(p + 16 * j + 4, &(DataList[1]));
 80003c6:	a92b      	add	r1, sp, #172	; 0xac
 80003c8:	f108 0004 	add.w	r0, r8, #4
 80003cc:	f7ff ff0a 	bl	80001e4 <byte2word>
		byte2word(p + 16 * j + 8, &(DataList[2]));
 80003d0:	a92c      	add	r1, sp, #176	; 0xb0
 80003d2:	f108 0008 	add.w	r0, r8, #8
 80003d6:	f7ff ff05 	bl	80001e4 <byte2word>
		byte2word(p + 16 * j + 12, &(DataList[3]));
 80003da:	a92d      	add	r1, sp, #180	; 0xb4
 80003dc:	f108 000c 	add.w	r0, r8, #12
 80003e0:	f7ff ff00 	bl	80001e4 <byte2word>
		for (i = 0; i < 32; i++)
 80003e4:	ae2a      	add	r6, sp, #168	; 0xa8
 80003e6:	f10d 0a28 	add.w	sl, sp, #40	; 0x28
 80003ea:	f04f 0900 	mov.w	r9, #0
			uint32_t tempdata = DataList[i + 1] ^ DataList[i + 2] ^ DataList[i + 3] ^ KeyList[i + 4];
 80003ee:	e9d6 3201 	ldrd	r3, r2, [r6, #4]
 80003f2:	68f1      	ldr	r1, [r6, #12]
 80003f4:	f85a 0b04 	ldr.w	r0, [sl], #4
 80003f8:	4053      	eors	r3, r2
 80003fa:	46b3      	mov	fp, r6
 80003fc:	404b      	eors	r3, r1
 80003fe:	4043      	eors	r3, r0
			func_data(&tempdata);
 8000400:	a801      	add	r0, sp, #4
			uint32_t tempdata = DataList[i + 1] ^ DataList[i + 2] ^ DataList[i + 3] ^ KeyList[i + 4];
 8000402:	9301      	str	r3, [sp, #4]
			func_data(&tempdata);
 8000404:	f7ff ff36 	bl	8000274 <func_data>
			DataList[i + 4] = DataList[i] ^tempdata;
 8000408:	f8db 2000 	ldr.w	r2, [fp]
 800040c:	9b01      	ldr	r3, [sp, #4]
			uint32_t tempdata = DataList[i + 1] ^ DataList[i + 2] ^ DataList[i + 3] ^ KeyList[i + 4];
 800040e:	f109 0901 	add.w	r9, r9, #1
 8000412:	3604      	adds	r6, #4
			DataList[i + 4] = DataList[i] ^tempdata;
 8000414:	4053      	eors	r3, r2
		for (i = 0; i < 32; i++)
 8000416:	f1b9 0f20 	cmp.w	r9, #32
			DataList[i + 4] = DataList[i] ^tempdata;
 800041a:	60f3      	str	r3, [r6, #12]
		for (i = 0; i < 32; i++)
 800041c:	d1e7      	bne.n	80003ee <encode_fun+0x11a>
		word2byte(DataList+35, input + 16 * j);
 800041e:	4621      	mov	r1, r4
 8000420:	a84d      	add	r0, sp, #308	; 0x134
 8000422:	f7ff fef0 	bl	8000206 <word2byte>
		word2byte(DataList+34, input + 16 * j + 4);
 8000426:	1d21      	adds	r1, r4, #4
 8000428:	a84c      	add	r0, sp, #304	; 0x130
 800042a:	f7ff feec 	bl	8000206 <word2byte>
		word2byte(DataList+33, input + 16 * j + 8);
 800042e:	f104 0108 	add.w	r1, r4, #8
 8000432:	a84b      	add	r0, sp, #300	; 0x12c
 8000434:	f7ff fee7 	bl	8000206 <word2byte>
		word2byte(DataList+32, input + 16 * j + 12);
 8000438:	f104 010c 	add.w	r1, r4, #12
 800043c:	a84a      	add	r0, sp, #296	; 0x128
 800043e:	f7ff fee2 	bl	8000206 <word2byte>
	for (j = 0; j < len / 16 + ((len % 16) ? 1 : 0); j++)  //进行循环加密,并将加密后数据保存（可以看出此处是以16字节为一次加密，进行循环，即若16字节则进行一次，17字节补0至32字节后进行加密两次，以此类推）
 8000442:	3410      	adds	r4, #16
 8000444:	f108 0810 	add.w	r8, r8, #16
 8000448:	e7b1      	b.n	80003ae <encode_fun+0xda>
 800044a:	bf00      	nop
 800044c:	a3b1bac6 	.word	0xa3b1bac6
 8000450:	080018c8 	.word	0x080018c8
 8000454:	56aa3350 	.word	0x56aa3350
 8000458:	677d9197 	.word	0x677d9197
 800045c:	b27022dc 	.word	0xb27022dc

08000460 <get_pt>:

uint8_t get_pt(uint8_t* pt, uint8_t len)
{
 8000460:	b538      	push	{r3, r4, r5, lr}
 8000462:	4604      	mov	r4, r0
 8000464:	460d      	mov	r5, r1
	/**********************************
	* Start user-specific code here. */
	trigger_high();
 8000466:	f000 f9f9 	bl	800085c <trigger_high>
	//16 hex bytes held in 'pt' were sent
	//from the computer. Store your response
	//back into 'pt', which will send 16 bytes
	//back to computer. Can ignore of course if
	//not needed
   encode_fun(len,key,pt);
 800046a:	4622      	mov	r2, r4
 800046c:	4628      	mov	r0, r5
 800046e:	4906      	ldr	r1, [pc, #24]	; (8000488 <get_pt+0x28>)
 8000470:	f7ff ff30 	bl	80002d4 <encode_fun>
	trigger_low();
 8000474:	f000 f9f9 	bl	800086a <trigger_low>
	/* End user-specific code here. *
	********************************/
	simpleserial_put('r', 16, pt);
 8000478:	4622      	mov	r2, r4
 800047a:	2110      	movs	r1, #16
 800047c:	2072      	movs	r0, #114	; 0x72
 800047e:	f000 f88d 	bl	800059c <simpleserial_put>
	return 0x00;
}
 8000482:	2000      	movs	r0, #0
 8000484:	bd38      	pop	{r3, r4, r5, pc}
 8000486:	bf00      	nop
 8000488:	20000080 	.word	0x20000080

0800048c <main>:
int main(void)
{
 800048c:	b508      	push	{r3, lr}
   platform_init();
 800048e:	f000 f943 	bl	8000718 <platform_init>
	init_uart();
 8000492:	f000 f981 	bl	8000798 <init_uart>
	trigger_setup();
 8000496:	f000 f9bd 	bl	8000814 <trigger_setup>
	putch('l');
	putch('o');
	putch('\n');
	*/

	simpleserial_init();
 800049a:	f000 f869 	bl	8000570 <simpleserial_init>

	simpleserial_addcmd('k', 16, get_key);
 800049e:	4a06      	ldr	r2, [pc, #24]	; (80004b8 <main+0x2c>)
 80004a0:	2110      	movs	r1, #16
 80004a2:	206b      	movs	r0, #107	; 0x6b
 80004a4:	f000 f860 	bl	8000568 <simpleserial_addcmd>
	simpleserial_addcmd('p', 16, get_pt);
 80004a8:	4a04      	ldr	r2, [pc, #16]	; (80004bc <main+0x30>)
 80004aa:	2110      	movs	r1, #16
 80004ac:	2070      	movs	r0, #112	; 0x70
 80004ae:	f000 f85b 	bl	8000568 <simpleserial_addcmd>

	while(1)
		simpleserial_get();
 80004b2:	f000 f8cd 	bl	8000650 <simpleserial_get>
	while(1)
 80004b6:	e7fc      	b.n	80004b2 <main+0x26>
 80004b8:	080001c9 	.word	0x080001c9
 80004bc:	08000461 	.word	0x08000461

080004c0 <check_version>:
// Callback function for "v" command.
// This can exist in v1.0 as long as we don't actually send back an ack ("z")
uint8_t check_version(uint8_t *v, uint8_t len)
{
	return SS_VER;
}
 80004c0:	2001      	movs	r0, #1
 80004c2:	4770      	bx	lr

080004c4 <hex_decode>:
	'0', '1', '2', '3', '4', '5', '6', '7',
	'8', '9', 'A', 'B', 'C', 'D', 'E', 'F'
};

int hex_decode(int len, char* ascii_buf, uint8_t* data_buf)
{
 80004c4:	b5f0      	push	{r4, r5, r6, r7, lr}
	for(int i = 0; i < len; i++)
 80004c6:	2500      	movs	r5, #0
	{
		char n_hi = ascii_buf[2*i];
		char n_lo = ascii_buf[2*i+1];
 80004c8:	1c4f      	adds	r7, r1, #1
	for(int i = 0; i < len; i++)
 80004ca:	4285      	cmp	r5, r0
 80004cc:	db01      	blt.n	80004d2 <hex_decode+0xe>
			data_buf[i] |= (n_hi - 'a' + 10) << 4;
		else
			return 1;
	}

	return 0;
 80004ce:	2000      	movs	r0, #0
 80004d0:	e021      	b.n	8000516 <hex_decode+0x52>
		char n_lo = ascii_buf[2*i+1];
 80004d2:	f817 4015 	ldrb.w	r4, [r7, r5, lsl #1]
		char n_hi = ascii_buf[2*i];
 80004d6:	f811 3015 	ldrb.w	r3, [r1, r5, lsl #1]
		if(n_lo >= '0' && n_lo <= '9')
 80004da:	f1a4 0630 	sub.w	r6, r4, #48	; 0x30
 80004de:	b2f6      	uxtb	r6, r6
 80004e0:	2e09      	cmp	r6, #9
 80004e2:	d80c      	bhi.n	80004fe <hex_decode+0x3a>
			data_buf[i] = n_lo - '0';
 80004e4:	7016      	strb	r6, [r2, #0]
		if(n_hi >= '0' && n_hi <= '9')
 80004e6:	f1a3 0430 	sub.w	r4, r3, #48	; 0x30
 80004ea:	b2e6      	uxtb	r6, r4
 80004ec:	2e09      	cmp	r6, #9
 80004ee:	d815      	bhi.n	800051c <hex_decode+0x58>
			data_buf[i] |= (n_hi - 'A' + 10) << 4;
 80004f0:	7813      	ldrb	r3, [r2, #0]
 80004f2:	ea43 1304 	orr.w	r3, r3, r4, lsl #4
			data_buf[i] |= (n_hi - 'a' + 10) << 4;
 80004f6:	7013      	strb	r3, [r2, #0]
	for(int i = 0; i < len; i++)
 80004f8:	3501      	adds	r5, #1
 80004fa:	3201      	adds	r2, #1
 80004fc:	e7e5      	b.n	80004ca <hex_decode+0x6>
		else if(n_lo >= 'A' && n_lo <= 'F')
 80004fe:	f1a4 0641 	sub.w	r6, r4, #65	; 0x41
 8000502:	2e05      	cmp	r6, #5
 8000504:	d802      	bhi.n	800050c <hex_decode+0x48>
			data_buf[i] = n_lo - 'A' + 10;
 8000506:	3c37      	subs	r4, #55	; 0x37
			data_buf[i] = n_lo - 'a' + 10;
 8000508:	7014      	strb	r4, [r2, #0]
 800050a:	e7ec      	b.n	80004e6 <hex_decode+0x22>
		else if(n_lo >= 'a' && n_lo <= 'f')
 800050c:	f1a4 0661 	sub.w	r6, r4, #97	; 0x61
 8000510:	2e05      	cmp	r6, #5
 8000512:	d901      	bls.n	8000518 <hex_decode+0x54>
			return 1;
 8000514:	2001      	movs	r0, #1
}
 8000516:	bdf0      	pop	{r4, r5, r6, r7, pc}
			data_buf[i] = n_lo - 'a' + 10;
 8000518:	3c57      	subs	r4, #87	; 0x57
 800051a:	e7f5      	b.n	8000508 <hex_decode+0x44>
		else if(n_hi >= 'A' && n_hi <= 'F')
 800051c:	f1a3 0441 	sub.w	r4, r3, #65	; 0x41
 8000520:	2c05      	cmp	r4, #5
 8000522:	d802      	bhi.n	800052a <hex_decode+0x66>
			data_buf[i] |= (n_hi - 'A' + 10) << 4;
 8000524:	f1a3 0437 	sub.w	r4, r3, #55	; 0x37
 8000528:	e7e2      	b.n	80004f0 <hex_decode+0x2c>
		else if(n_hi >= 'a' && n_hi <= 'f')
 800052a:	f1a3 0461 	sub.w	r4, r3, #97	; 0x61
 800052e:	2c05      	cmp	r4, #5
 8000530:	d8f0      	bhi.n	8000514 <hex_decode+0x50>
			data_buf[i] |= (n_hi - 'a' + 10) << 4;
 8000532:	7814      	ldrb	r4, [r2, #0]
 8000534:	3b57      	subs	r3, #87	; 0x57
 8000536:	ea44 1303 	orr.w	r3, r4, r3, lsl #4
 800053a:	e7dc      	b.n	80004f6 <hex_decode+0x32>

0800053c <simpleserial_addcmd_flags>:
{
	return simpleserial_addcmd_flags(c, len, fp, CMD_FLAG_NONE);
}

int simpleserial_addcmd_flags(char c, unsigned int len, uint8_t (*fp)(uint8_t*, uint8_t), uint8_t fl)
{
 800053c:	b570      	push	{r4, r5, r6, lr}
	if(num_commands >= MAX_SS_CMDS)
 800053e:	4e09      	ldr	r6, [pc, #36]	; (8000564 <simpleserial_addcmd_flags+0x28>)
 8000540:	6834      	ldr	r4, [r6, #0]
 8000542:	2c0f      	cmp	r4, #15
 8000544:	dc0b      	bgt.n	800055e <simpleserial_addcmd_flags+0x22>
		return 1;

	if(len >= MAX_SS_LEN)
 8000546:	29ff      	cmp	r1, #255	; 0xff
 8000548:	d809      	bhi.n	800055e <simpleserial_addcmd_flags+0x22>
		return 1;

	commands[num_commands].c   = c;
 800054a:	eb06 1504 	add.w	r5, r6, r4, lsl #4
	commands[num_commands].len = len;
	commands[num_commands].fp  = fp;
 800054e:	e9c5 1202 	strd	r1, r2, [r5, #8]
	commands[num_commands].flags = fl;
	num_commands++;
 8000552:	3401      	adds	r4, #1
	commands[num_commands].c   = c;
 8000554:	7128      	strb	r0, [r5, #4]
	commands[num_commands].flags = fl;
 8000556:	742b      	strb	r3, [r5, #16]
	num_commands++;
 8000558:	6034      	str	r4, [r6, #0]

	return 0;
 800055a:	2000      	movs	r0, #0
}
 800055c:	bd70      	pop	{r4, r5, r6, pc}
		return 1;
 800055e:	2001      	movs	r0, #1
 8000560:	e7fc      	b.n	800055c <simpleserial_addcmd_flags+0x20>
 8000562:	bf00      	nop
 8000564:	20000090 	.word	0x20000090

08000568 <simpleserial_addcmd>:
	return simpleserial_addcmd_flags(c, len, fp, CMD_FLAG_NONE);
 8000568:	2300      	movs	r3, #0
 800056a:	f7ff bfe7 	b.w	800053c <simpleserial_addcmd_flags>
 800056e:	0000      	movs	r0, r0

08000570 <simpleserial_init>:
{
 8000570:	b508      	push	{r3, lr}
	simpleserial_addcmd('v', 0, check_version);
 8000572:	4a07      	ldr	r2, [pc, #28]	; (8000590 <simpleserial_init+0x20>)
 8000574:	2100      	movs	r1, #0
 8000576:	2076      	movs	r0, #118	; 0x76
 8000578:	f7ff fff6 	bl	8000568 <simpleserial_addcmd>
    simpleserial_addcmd('w', 0, ss_get_commands);
 800057c:	4a05      	ldr	r2, [pc, #20]	; (8000594 <simpleserial_init+0x24>)
 800057e:	2077      	movs	r0, #119	; 0x77
 8000580:	f7ff fff2 	bl	8000568 <simpleserial_addcmd>
}
 8000584:	e8bd 4008 	ldmia.w	sp!, {r3, lr}
    simpleserial_addcmd('y', 0, ss_num_commands);
 8000588:	4a03      	ldr	r2, [pc, #12]	; (8000598 <simpleserial_init+0x28>)
 800058a:	2079      	movs	r0, #121	; 0x79
 800058c:	f7ff bfec 	b.w	8000568 <simpleserial_addcmd>
 8000590:	080004c1 	.word	0x080004c1
 8000594:	08000601 	.word	0x08000601
 8000598:	080005dd 	.word	0x080005dd

0800059c <simpleserial_put>:
	simpleserial_put('z', 1, ret);
#endif
}

void simpleserial_put(char c, uint8_t size, uint8_t* output)
{
 800059c:	b5f8      	push	{r3, r4, r5, r6, r7, lr}
 800059e:	4614      	mov	r4, r2
 80005a0:	460e      	mov	r6, r1
	// Write first character
	putch(c);
 80005a2:	f000 f983 	bl	80008ac <putch>

	// Write each byte as two nibbles
	for(int i = 0; i < size; i++)
	{
		putch(hex_lookup[output[i] >> 4 ]);
 80005a6:	4f0c      	ldr	r7, [pc, #48]	; (80005d8 <simpleserial_put+0x3c>)
 80005a8:	1e65      	subs	r5, r4, #1
	for(int i = 0; i < size; i++)
 80005aa:	f1c4 0401 	rsb	r4, r4, #1
 80005ae:	1963      	adds	r3, r4, r5
 80005b0:	429e      	cmp	r6, r3
 80005b2:	dc04      	bgt.n	80005be <simpleserial_put+0x22>
		putch(hex_lookup[output[i] & 0xF]);
	}

	// Write trailing '\n'
	putch('\n');
}
 80005b4:	e8bd 40f8 	ldmia.w	sp!, {r3, r4, r5, r6, r7, lr}
	putch('\n');
 80005b8:	200a      	movs	r0, #10
 80005ba:	f000 b977 	b.w	80008ac <putch>
		putch(hex_lookup[output[i] >> 4 ]);
 80005be:	f815 3f01 	ldrb.w	r3, [r5, #1]!
 80005c2:	091b      	lsrs	r3, r3, #4
 80005c4:	5cf8      	ldrb	r0, [r7, r3]
 80005c6:	f000 f971 	bl	80008ac <putch>
		putch(hex_lookup[output[i] & 0xF]);
 80005ca:	782b      	ldrb	r3, [r5, #0]
 80005cc:	f003 030f 	and.w	r3, r3, #15
 80005d0:	5cf8      	ldrb	r0, [r7, r3]
 80005d2:	f000 f96b 	bl	80008ac <putch>
	for(int i = 0; i < size; i++)
 80005d6:	e7ea      	b.n	80005ae <simpleserial_put+0x12>
 80005d8:	08001958 	.word	0x08001958

080005dc <ss_num_commands>:
{
 80005dc:	b507      	push	{r0, r1, r2, lr}
    uint8_t ncmds = num_commands & 0xFF;
 80005de:	4b07      	ldr	r3, [pc, #28]	; (80005fc <ss_num_commands+0x20>)
    simpleserial_put('r', 0x01, &ncmds);
 80005e0:	f10d 0207 	add.w	r2, sp, #7
    uint8_t ncmds = num_commands & 0xFF;
 80005e4:	681b      	ldr	r3, [r3, #0]
 80005e6:	f88d 3007 	strb.w	r3, [sp, #7]
    simpleserial_put('r', 0x01, &ncmds);
 80005ea:	2101      	movs	r1, #1
 80005ec:	2072      	movs	r0, #114	; 0x72
 80005ee:	f7ff ffd5 	bl	800059c <simpleserial_put>
}
 80005f2:	2000      	movs	r0, #0
 80005f4:	b003      	add	sp, #12
 80005f6:	f85d fb04 	ldr.w	pc, [sp], #4
 80005fa:	bf00      	nop
 80005fc:	20000090 	.word	0x20000090

08000600 <ss_get_commands>:
{
 8000600:	b570      	push	{r4, r5, r6, lr}
    for (uint8_t i = 0; i < (num_commands & 0xFF); i++) {
 8000602:	4c12      	ldr	r4, [pc, #72]	; (800064c <ss_get_commands+0x4c>)
 8000604:	6821      	ldr	r1, [r4, #0]
{
 8000606:	b08c      	sub	sp, #48	; 0x30
    for (uint8_t i = 0; i < (num_commands & 0xFF); i++) {
 8000608:	b2cd      	uxtb	r5, r1
 800060a:	2000      	movs	r0, #0
 800060c:	b2c3      	uxtb	r3, r0
 800060e:	42ab      	cmp	r3, r5
 8000610:	f100 0001 	add.w	r0, r0, #1
 8000614:	db09      	blt.n	800062a <ss_get_commands+0x2a>
    simpleserial_put('r', num_commands * 0x03, (void *) repr_cmd_buf);
 8000616:	eb01 0141 	add.w	r1, r1, r1, lsl #1
 800061a:	466a      	mov	r2, sp
 800061c:	b2c9      	uxtb	r1, r1
 800061e:	2072      	movs	r0, #114	; 0x72
 8000620:	f7ff ffbc 	bl	800059c <simpleserial_put>
}
 8000624:	2000      	movs	r0, #0
 8000626:	b00c      	add	sp, #48	; 0x30
 8000628:	bd70      	pop	{r4, r5, r6, pc}
        repr_cmd_buf[i].c = commands[i].c;
 800062a:	eb03 0243 	add.w	r2, r3, r3, lsl #1
 800062e:	ae0c      	add	r6, sp, #48	; 0x30
 8000630:	eb04 1303 	add.w	r3, r4, r3, lsl #4
 8000634:	4432      	add	r2, r6
 8000636:	791e      	ldrb	r6, [r3, #4]
 8000638:	f802 6c30 	strb.w	r6, [r2, #-48]
        repr_cmd_buf[i].len = commands[i].len;
 800063c:	689e      	ldr	r6, [r3, #8]
        repr_cmd_buf[i].flags = commands[i].flags;
 800063e:	7c1b      	ldrb	r3, [r3, #16]
        repr_cmd_buf[i].len = commands[i].len;
 8000640:	f802 6c2f 	strb.w	r6, [r2, #-47]
        repr_cmd_buf[i].flags = commands[i].flags;
 8000644:	f802 3c2e 	strb.w	r3, [r2, #-46]
    for (uint8_t i = 0; i < (num_commands & 0xFF); i++) {
 8000648:	e7e0      	b.n	800060c <ss_get_commands+0xc>
 800064a:	bf00      	nop
 800064c:	20000090 	.word	0x20000090

08000650 <simpleserial_get>:
{
 8000650:	e92d 41f0 	stmdb	sp!, {r4, r5, r6, r7, r8, lr}
	for(cmd = 0; cmd < num_commands; cmd++)
 8000654:	4d2f      	ldr	r5, [pc, #188]	; (8000714 <simpleserial_get+0xc4>)
{
 8000656:	f5ad 7d42 	sub.w	sp, sp, #776	; 0x308
	c = getch();
 800065a:	f000 f90d 	bl	8000878 <getch>
	for(cmd = 0; cmd < num_commands; cmd++)
 800065e:	462a      	mov	r2, r5
 8000660:	2300      	movs	r3, #0
 8000662:	f852 1b04 	ldr.w	r1, [r2], #4
 8000666:	4299      	cmp	r1, r3
 8000668:	dc04      	bgt.n	8000674 <simpleserial_get+0x24>
	if(cmd == num_commands)
 800066a:	d107      	bne.n	800067c <simpleserial_get+0x2c>
}
 800066c:	f50d 7d42 	add.w	sp, sp, #776	; 0x308
 8000670:	e8bd 81f0 	ldmia.w	sp!, {r4, r5, r6, r7, r8, pc}
		if(commands[cmd].c == c)
 8000674:	011c      	lsls	r4, r3, #4
 8000676:	5ca4      	ldrb	r4, [r4, r2]
 8000678:	4284      	cmp	r4, r0
 800067a:	d13e      	bne.n	80006fa <simpleserial_get+0xaa>
	if ((commands[cmd].flags & CMD_FLAG_LEN) != 0)
 800067c:	eb05 1403 	add.w	r4, r5, r3, lsl #4
 8000680:	011e      	lsls	r6, r3, #4
 8000682:	7c23      	ldrb	r3, [r4, #16]
 8000684:	07db      	lsls	r3, r3, #31
 8000686:	d514      	bpl.n	80006b2 <simpleserial_get+0x62>
		uint8_t l = 0;
 8000688:	2300      	movs	r3, #0
 800068a:	f88d 3008 	strb.w	r3, [sp, #8]
		buff[0] = getch();
 800068e:	f000 f8f3 	bl	8000878 <getch>
 8000692:	f88d 0108 	strb.w	r0, [sp, #264]	; 0x108
		buff[1] = getch();
 8000696:	f000 f8ef 	bl	8000878 <getch>
		if (hex_decode(1, buff, &l))
 800069a:	aa02      	add	r2, sp, #8
		buff[1] = getch();
 800069c:	f88d 0109 	strb.w	r0, [sp, #265]	; 0x109
		if (hex_decode(1, buff, &l))
 80006a0:	a942      	add	r1, sp, #264	; 0x108
 80006a2:	2001      	movs	r0, #1
 80006a4:	f7ff ff0e 	bl	80004c4 <hex_decode>
 80006a8:	2800      	cmp	r0, #0
 80006aa:	d1df      	bne.n	800066c <simpleserial_get+0x1c>
		commands[cmd].len = l;
 80006ac:	f89d 3008 	ldrb.w	r3, [sp, #8]
 80006b0:	60a3      	str	r3, [r4, #8]
 80006b2:	af42      	add	r7, sp, #264	; 0x108
	for(cmd = 0; cmd < num_commands; cmd++)
 80006b4:	2400      	movs	r4, #0
	for(int i = 0; i < 2*commands[cmd].len; i++)
 80006b6:	eb05 0806 	add.w	r8, r5, r6
 80006ba:	f8d8 3008 	ldr.w	r3, [r8, #8]
 80006be:	ebb4 0f43 	cmp.w	r4, r3, lsl #1
 80006c2:	d31c      	bcc.n	80006fe <simpleserial_get+0xae>
	c = getch();
 80006c4:	f000 f8d8 	bl	8000878 <getch>
	if(c != '\n' && c != '\r')
 80006c8:	280a      	cmp	r0, #10
 80006ca:	d001      	beq.n	80006d0 <simpleserial_get+0x80>
 80006cc:	280d      	cmp	r0, #13
 80006ce:	d1cd      	bne.n	800066c <simpleserial_get+0x1c>
	if(hex_decode(commands[cmd].len, ascii_buf, data_buf))
 80006d0:	4435      	add	r5, r6
 80006d2:	aa02      	add	r2, sp, #8
 80006d4:	68ac      	ldr	r4, [r5, #8]
 80006d6:	a942      	add	r1, sp, #264	; 0x108
 80006d8:	4620      	mov	r0, r4
 80006da:	f7ff fef3 	bl	80004c4 <hex_decode>
 80006de:	2800      	cmp	r0, #0
 80006e0:	d1c4      	bne.n	800066c <simpleserial_get+0x1c>
	ret[0] = commands[cmd].fp(data_buf, commands[cmd].len);
 80006e2:	b2e1      	uxtb	r1, r4
 80006e4:	68eb      	ldr	r3, [r5, #12]
 80006e6:	a802      	add	r0, sp, #8
 80006e8:	4798      	blx	r3
	simpleserial_put('z', 1, ret);
 80006ea:	aa01      	add	r2, sp, #4
	ret[0] = commands[cmd].fp(data_buf, commands[cmd].len);
 80006ec:	f88d 0004 	strb.w	r0, [sp, #4]
	simpleserial_put('z', 1, ret);
 80006f0:	2101      	movs	r1, #1
 80006f2:	207a      	movs	r0, #122	; 0x7a
 80006f4:	f7ff ff52 	bl	800059c <simpleserial_put>
 80006f8:	e7b8      	b.n	800066c <simpleserial_get+0x1c>
	for(cmd = 0; cmd < num_commands; cmd++)
 80006fa:	3301      	adds	r3, #1
 80006fc:	e7b3      	b.n	8000666 <simpleserial_get+0x16>
		c = getch();
 80006fe:	f000 f8bb 	bl	8000878 <getch>
		if(c == '\n' || c == '\r')
 8000702:	280a      	cmp	r0, #10
 8000704:	d0b2      	beq.n	800066c <simpleserial_get+0x1c>
 8000706:	280d      	cmp	r0, #13
 8000708:	d0b0      	beq.n	800066c <simpleserial_get+0x1c>
		ascii_buf[i] = c;
 800070a:	f807 0b01 	strb.w	r0, [r7], #1
	for(int i = 0; i < 2*commands[cmd].len; i++)
 800070e:	3401      	adds	r4, #1
 8000710:	e7d3      	b.n	80006ba <simpleserial_get+0x6a>
 8000712:	bf00      	nop
 8000714:	20000090 	.word	0x20000090

08000718 <platform_init>:

UART_HandleTypeDef UartHandle;


void platform_init(void)
{
 8000718:	b570      	push	{r4, r5, r6, lr}
 800071a:	b096      	sub	sp, #88	; 0x58
     HAL_RCC_ClockConfig(&RCC_ClkInitStruct, flash_latency);
  #else
     RCC_OscInitTypeDef RCC_OscInitStruct;
     RCC_OscInitStruct.OscillatorType = RCC_OSCILLATORTYPE_HSE | RCC_OSCILLATORTYPE_HSI;
     RCC_OscInitStruct.HSEState       = RCC_HSE_BYPASS;
     RCC_OscInitStruct.HSIState       = RCC_HSI_OFF;
 800071c:	2400      	movs	r4, #0
     RCC_OscInitStruct.HSEState       = RCC_HSE_BYPASS;
 800071e:	2603      	movs	r6, #3
 8000720:	f44f 23a0 	mov.w	r3, #327680	; 0x50000
     RCC_OscInitStruct.PLL.PLLSource  = RCC_PLL_NONE;
     HAL_RCC_OscConfig(&RCC_OscInitStruct);
 8000724:	a80c      	add	r0, sp, #48	; 0x30

     RCC_ClkInitTypeDef RCC_ClkInitStruct;
     RCC_ClkInitStruct.ClockType      = (RCC_CLOCKTYPE_SYSCLK | RCC_CLOCKTYPE_HCLK | RCC_CLOCKTYPE_PCLK1 | RCC_CLOCKTYPE_PCLK2);
     RCC_ClkInitStruct.SYSCLKSource   = RCC_SYSCLKSOURCE_HSE;
 8000726:	2501      	movs	r5, #1
     RCC_OscInitStruct.HSEState       = RCC_HSE_BYPASS;
 8000728:	e9cd 630c 	strd	r6, r3, [sp, #48]	; 0x30
     RCC_OscInitStruct.HSIState       = RCC_HSI_OFF;
 800072c:	9410      	str	r4, [sp, #64]	; 0x40
     RCC_OscInitStruct.PLL.PLLSource  = RCC_PLL_NONE;
 800072e:	9414      	str	r4, [sp, #80]	; 0x50
     HAL_RCC_OscConfig(&RCC_OscInitStruct);
 8000730:	f000 f8d4 	bl	80008dc <HAL_RCC_OscConfig>
     RCC_ClkInitStruct.SYSCLKSource   = RCC_SYSCLKSOURCE_HSE;
 8000734:	230f      	movs	r3, #15
     RCC_ClkInitStruct.AHBCLKDivider  = RCC_SYSCLK_DIV1;
     RCC_ClkInitStruct.APB1CLKDivider = RCC_HCLK_DIV1;
     RCC_ClkInitStruct.APB2CLKDivider = RCC_HCLK_DIV1;
     uint32_t flash_latency = 0;
     HAL_RCC_ClockConfig(&RCC_ClkInitStruct, flash_latency);
 8000736:	4621      	mov	r1, r4
 8000738:	a802      	add	r0, sp, #8
     RCC_ClkInitStruct.SYSCLKSource   = RCC_SYSCLKSOURCE_HSE;
 800073a:	e9cd 3502 	strd	r3, r5, [sp, #8]
     RCC_ClkInitStruct.APB1CLKDivider = RCC_HCLK_DIV1;
 800073e:	e9cd 4404 	strd	r4, r4, [sp, #16]
     RCC_ClkInitStruct.APB2CLKDivider = RCC_HCLK_DIV1;
 8000742:	9406      	str	r4, [sp, #24]
     HAL_RCC_ClockConfig(&RCC_ClkInitStruct, flash_latency);
 8000744:	f000 fb38 	bl	8000db8 <HAL_RCC_ClockConfig>




#if (PLATFORM==CWLITEARM)
  __HAL_RCC_GPIOC_CLK_ENABLE();
 8000748:	4b11      	ldr	r3, [pc, #68]	; (8000790 <platform_init+0x78>)
 800074a:	695a      	ldr	r2, [r3, #20]
 800074c:	f442 2200 	orr.w	r2, r2, #524288	; 0x80000
 8000750:	615a      	str	r2, [r3, #20]
 8000752:	695b      	ldr	r3, [r3, #20]
  GPIO_InitTypeDef GpioInit;
  GpioInit.Pin       = GPIO_PIN_13 | GPIO_PIN_14;
  GpioInit.Mode      = GPIO_MODE_OUTPUT_PP;
  GpioInit.Pull      = GPIO_NOPULL;
  GpioInit.Speed     = GPIO_SPEED_FREQ_HIGH;
 8000754:	e9cd 4609 	strd	r4, r6, [sp, #36]	; 0x24
  __HAL_RCC_GPIOC_CLK_ENABLE();
 8000758:	f403 2300 	and.w	r3, r3, #524288	; 0x80000
  HAL_GPIO_Init(GPIOC, &GpioInit);
 800075c:	4c0d      	ldr	r4, [pc, #52]	; (8000794 <platform_init+0x7c>)
  __HAL_RCC_GPIOC_CLK_ENABLE();
 800075e:	9301      	str	r3, [sp, #4]
 8000760:	9b01      	ldr	r3, [sp, #4]
  HAL_GPIO_Init(GPIOC, &GpioInit);
 8000762:	a907      	add	r1, sp, #28
  GpioInit.Pin       = GPIO_PIN_13 | GPIO_PIN_14;
 8000764:	f44f 43c0 	mov.w	r3, #24576	; 0x6000
  HAL_GPIO_Init(GPIOC, &GpioInit);
 8000768:	4620      	mov	r0, r4
  GpioInit.Mode      = GPIO_MODE_OUTPUT_PP;
 800076a:	e9cd 3507 	strd	r3, r5, [sp, #28]
  HAL_GPIO_Init(GPIOC, &GpioInit);
 800076e:	f000 fbc9 	bl	8000f04 <HAL_GPIO_Init>

  HAL_GPIO_WritePin(GPIOC, GPIO_PIN_13, SET);
 8000772:	462a      	mov	r2, r5
 8000774:	4620      	mov	r0, r4
 8000776:	f44f 5100 	mov.w	r1, #8192	; 0x2000
 800077a:	f000 fc87 	bl	800108c <HAL_GPIO_WritePin>
  HAL_GPIO_WritePin(GPIOC, GPIO_PIN_14, SET);
 800077e:	462a      	mov	r2, r5
 8000780:	f44f 4180 	mov.w	r1, #16384	; 0x4000
 8000784:	4620      	mov	r0, r4
 8000786:	f000 fc81 	bl	800108c <HAL_GPIO_WritePin>
#endif
}
 800078a:	b016      	add	sp, #88	; 0x58
 800078c:	bd70      	pop	{r4, r5, r6, pc}
 800078e:	bf00      	nop
 8000790:	40021000 	.word	0x40021000
 8000794:	48000800 	.word	0x48000800

08000798 <init_uart>:

void init_uart(void)
{
 8000798:	b510      	push	{r4, lr}
  GPIO_InitTypeDef GpioInit;
  GpioInit.Pin       = GPIO_PIN_9 | GPIO_PIN_10;
  GpioInit.Mode      = GPIO_MODE_AF_PP;
 800079a:	f44f 62c0 	mov.w	r2, #1536	; 0x600
{
 800079e:	b088      	sub	sp, #32
  GpioInit.Mode      = GPIO_MODE_AF_PP;
 80007a0:	2302      	movs	r3, #2
 80007a2:	e9cd 2303 	strd	r2, r3, [sp, #12]
  GpioInit.Pull      = GPIO_PULLUP;
  GpioInit.Speed     = GPIO_SPEED_FREQ_HIGH;
 80007a6:	2101      	movs	r1, #1
 80007a8:	2303      	movs	r3, #3
 80007aa:	e9cd 1305 	strd	r1, r3, [sp, #20]
  GpioInit.Alternate = GPIO_AF7_USART1;
  __GPIOA_CLK_ENABLE();
 80007ae:	4c16      	ldr	r4, [pc, #88]	; (8000808 <init_uart+0x70>)
  GpioInit.Alternate = GPIO_AF7_USART1;
 80007b0:	2307      	movs	r3, #7
 80007b2:	9307      	str	r3, [sp, #28]
  __GPIOA_CLK_ENABLE();
 80007b4:	6963      	ldr	r3, [r4, #20]
 80007b6:	f443 3300 	orr.w	r3, r3, #131072	; 0x20000
 80007ba:	6163      	str	r3, [r4, #20]
 80007bc:	6963      	ldr	r3, [r4, #20]
 80007be:	f403 3300 	and.w	r3, r3, #131072	; 0x20000
 80007c2:	9301      	str	r3, [sp, #4]
  HAL_GPIO_Init(GPIOA, &GpioInit);
 80007c4:	a903      	add	r1, sp, #12
 80007c6:	f04f 4090 	mov.w	r0, #1207959552	; 0x48000000
  __GPIOA_CLK_ENABLE();
 80007ca:	9b01      	ldr	r3, [sp, #4]
  HAL_GPIO_Init(GPIOA, &GpioInit);
 80007cc:	f000 fb9a 	bl	8000f04 <HAL_GPIO_Init>

  UartHandle.Instance        = USART1;
 80007d0:	480e      	ldr	r0, [pc, #56]	; (800080c <init_uart+0x74>)
  #if SS_VER==SS_VER_2_1
  UartHandle.Init.BaudRate   = 230400;
  #else
  UartHandle.Init.BaudRate   = 38400;
 80007d2:	f8df c03c 	ldr.w	ip, [pc, #60]	; 8000810 <init_uart+0x78>
 80007d6:	f44f 4316 	mov.w	r3, #38400	; 0x9600
 80007da:	e9c0 c300 	strd	ip, r3, [r0]
  #endif
  UartHandle.Init.WordLength = UART_WORDLENGTH_8B;
 80007de:	2300      	movs	r3, #0
  UartHandle.Init.StopBits   = UART_STOPBITS_1;
 80007e0:	e9c0 3302 	strd	r3, r3, [r0, #8]
  UartHandle.Init.Parity     = UART_PARITY_NONE;
 80007e4:	6103      	str	r3, [r0, #16]
  UartHandle.Init.HwFlowCtl  = UART_HWCONTROL_NONE;
 80007e6:	6183      	str	r3, [r0, #24]
  UartHandle.Init.Mode       = UART_MODE_TX_RX;
 80007e8:	230c      	movs	r3, #12
 80007ea:	6143      	str	r3, [r0, #20]
  __USART1_CLK_ENABLE();
 80007ec:	69a3      	ldr	r3, [r4, #24]
 80007ee:	f443 4380 	orr.w	r3, r3, #16384	; 0x4000
 80007f2:	61a3      	str	r3, [r4, #24]
 80007f4:	69a3      	ldr	r3, [r4, #24]
 80007f6:	f403 4380 	and.w	r3, r3, #16384	; 0x4000
 80007fa:	9302      	str	r3, [sp, #8]
 80007fc:	9b02      	ldr	r3, [sp, #8]
  HAL_UART_Init(&UartHandle);
 80007fe:	f000 fd99 	bl	8001334 <HAL_UART_Init>
}
 8000802:	b008      	add	sp, #32
 8000804:	bd10      	pop	{r4, pc}
 8000806:	bf00      	nop
 8000808:	40021000 	.word	0x40021000
 800080c:	20000194 	.word	0x20000194
 8000810:	40013800 	.word	0x40013800

08000814 <trigger_setup>:

void trigger_setup(void)
{
  __HAL_RCC_GPIOA_CLK_ENABLE();
 8000814:	4b10      	ldr	r3, [pc, #64]	; (8000858 <trigger_setup+0x44>)
{
 8000816:	b530      	push	{r4, r5, lr}
  __HAL_RCC_GPIOA_CLK_ENABLE();
 8000818:	695a      	ldr	r2, [r3, #20]
 800081a:	f442 3200 	orr.w	r2, r2, #131072	; 0x20000
 800081e:	615a      	str	r2, [r3, #20]
 8000820:	695b      	ldr	r3, [r3, #20]
{
 8000822:	b087      	sub	sp, #28
  __HAL_RCC_GPIOA_CLK_ENABLE();
 8000824:	f403 3300 	and.w	r3, r3, #131072	; 0x20000
 8000828:	9300      	str	r3, [sp, #0]
 800082a:	9b00      	ldr	r3, [sp, #0]

  GPIO_InitTypeDef GpioInit;
  GpioInit.Pin       = GPIO_PIN_12;
  GpioInit.Mode      = GPIO_MODE_OUTPUT_PP;
 800082c:	f44f 5480 	mov.w	r4, #4096	; 0x1000
 8000830:	2301      	movs	r3, #1
 8000832:	e9cd 4301 	strd	r4, r3, [sp, #4]
  GpioInit.Pull      = GPIO_NOPULL;
  GpioInit.Speed     = GPIO_SPEED_FREQ_HIGH;
 8000836:	2500      	movs	r5, #0
 8000838:	2303      	movs	r3, #3
  HAL_GPIO_Init(GPIOA, &GpioInit);
 800083a:	a901      	add	r1, sp, #4
 800083c:	f04f 4090 	mov.w	r0, #1207959552	; 0x48000000
  GpioInit.Speed     = GPIO_SPEED_FREQ_HIGH;
 8000840:	e9cd 5303 	strd	r5, r3, [sp, #12]
  HAL_GPIO_Init(GPIOA, &GpioInit);
 8000844:	f000 fb5e 	bl	8000f04 <HAL_GPIO_Init>

  HAL_GPIO_WritePin(GPIOA, GPIO_PIN_12, RESET);
 8000848:	462a      	mov	r2, r5
 800084a:	4621      	mov	r1, r4
 800084c:	f04f 4090 	mov.w	r0, #1207959552	; 0x48000000
 8000850:	f000 fc1c 	bl	800108c <HAL_GPIO_WritePin>
}
 8000854:	b007      	add	sp, #28
 8000856:	bd30      	pop	{r4, r5, pc}
 8000858:	40021000 	.word	0x40021000

0800085c <trigger_high>:

void trigger_high(void)
{
  HAL_GPIO_WritePin(GPIOA, GPIO_PIN_12, SET);
 800085c:	2201      	movs	r2, #1
 800085e:	f44f 5180 	mov.w	r1, #4096	; 0x1000
 8000862:	f04f 4090 	mov.w	r0, #1207959552	; 0x48000000
 8000866:	f000 bc11 	b.w	800108c <HAL_GPIO_WritePin>

0800086a <trigger_low>:
}

void trigger_low(void)
{
  HAL_GPIO_WritePin(GPIOA, GPIO_PIN_12, RESET);
 800086a:	2200      	movs	r2, #0
 800086c:	f44f 5180 	mov.w	r1, #4096	; 0x1000
 8000870:	f04f 4090 	mov.w	r0, #1207959552	; 0x48000000
 8000874:	f000 bc0a 	b.w	800108c <HAL_GPIO_WritePin>

08000878 <getch>:
}

char getch(void)
{
 8000878:	b537      	push	{r0, r1, r2, r4, r5, lr}
  uint8_t d;
  while (HAL_UART_Receive(&UartHandle, &d, 1, 5000) != HAL_OK)
 800087a:	4d0a      	ldr	r5, [pc, #40]	; (80008a4 <getch+0x2c>)
    USART1->ICR |= (1 << 3);
 800087c:	4c0a      	ldr	r4, [pc, #40]	; (80008a8 <getch+0x30>)
  while (HAL_UART_Receive(&UartHandle, &d, 1, 5000) != HAL_OK)
 800087e:	f241 3388 	movw	r3, #5000	; 0x1388
 8000882:	2201      	movs	r2, #1
 8000884:	f10d 0107 	add.w	r1, sp, #7
 8000888:	4628      	mov	r0, r5
 800088a:	f000 fdd4 	bl	8001436 <HAL_UART_Receive>
 800088e:	b918      	cbnz	r0, 8000898 <getch+0x20>
  //putch(d);
  return d;
}
 8000890:	f89d 0007 	ldrb.w	r0, [sp, #7]
 8000894:	b003      	add	sp, #12
 8000896:	bd30      	pop	{r4, r5, pc}
    USART1->ICR |= (1 << 3);
 8000898:	6a23      	ldr	r3, [r4, #32]
 800089a:	f043 0308 	orr.w	r3, r3, #8
 800089e:	6223      	str	r3, [r4, #32]
 80008a0:	e7ed      	b.n	800087e <getch+0x6>
 80008a2:	bf00      	nop
 80008a4:	20000194 	.word	0x20000194
 80008a8:	40013800 	.word	0x40013800

080008ac <putch>:

void putch(char c)
{
 80008ac:	b507      	push	{r0, r1, r2, lr}
  uint8_t d  = c;
  HAL_UART_Transmit(&UartHandle,  &d, 1, 5000);
 80008ae:	f241 3388 	movw	r3, #5000	; 0x1388
  uint8_t d  = c;
 80008b2:	f88d 0007 	strb.w	r0, [sp, #7]
  HAL_UART_Transmit(&UartHandle,  &d, 1, 5000);
 80008b6:	2201      	movs	r2, #1
 80008b8:	f10d 0107 	add.w	r1, sp, #7
 80008bc:	4802      	ldr	r0, [pc, #8]	; (80008c8 <putch+0x1c>)
 80008be:	f000 fd64 	bl	800138a <HAL_UART_Transmit>
}
 80008c2:	b003      	add	sp, #12
 80008c4:	f85d fb04 	ldr.w	pc, [sp], #4
 80008c8:	20000194 	.word	0x20000194

080008cc <HAL_GetTick>:
	hal_sys_tick = 0;
	return HAL_OK;
}
uint32_t HAL_GetTick(void)
{
	return hal_sys_tick++;
 80008cc:	4b02      	ldr	r3, [pc, #8]	; (80008d8 <HAL_GetTick+0xc>)
 80008ce:	6818      	ldr	r0, [r3, #0]
 80008d0:	1c42      	adds	r2, r0, #1
 80008d2:	601a      	str	r2, [r3, #0]
}
 80008d4:	4770      	bx	lr
 80008d6:	bf00      	nop
 80008d8:	20000204 	.word	0x20000204

080008dc <HAL_RCC_OscConfig>:
  /* Check the parameters */
  assert_param(RCC_OscInitStruct != NULL);
  assert_param(IS_RCC_OSCILLATORTYPE(RCC_OscInitStruct->OscillatorType));

  /*------------------------------- HSE Configuration ------------------------*/ 
  if(((RCC_OscInitStruct->OscillatorType) & RCC_OSCILLATORTYPE_HSE) == RCC_OSCILLATORTYPE_HSE)
 80008dc:	6803      	ldr	r3, [r0, #0]
{
 80008de:	e92d 41f3 	stmdb	sp!, {r0, r1, r4, r5, r6, r7, r8, lr}
  if(((RCC_OscInitStruct->OscillatorType) & RCC_OSCILLATORTYPE_HSE) == RCC_OSCILLATORTYPE_HSE)
 80008e2:	07d9      	lsls	r1, r3, #31
{
 80008e4:	4604      	mov	r4, r0
  if(((RCC_OscInitStruct->OscillatorType) & RCC_OSCILLATORTYPE_HSE) == RCC_OSCILLATORTYPE_HSE)
 80008e6:	d411      	bmi.n	800090c <HAL_RCC_OscConfig+0x30>
        }
      }
    }
  }
  /*----------------------------- HSI Configuration --------------------------*/ 
  if(((RCC_OscInitStruct->OscillatorType) & RCC_OSCILLATORTYPE_HSI) == RCC_OSCILLATORTYPE_HSI)
 80008e8:	6823      	ldr	r3, [r4, #0]
 80008ea:	079a      	lsls	r2, r3, #30
 80008ec:	f100 8086 	bmi.w	80009fc <HAL_RCC_OscConfig+0x120>
        }
      }
    }
  }
  /*------------------------------ LSI Configuration -------------------------*/ 
  if(((RCC_OscInitStruct->OscillatorType) & RCC_OSCILLATORTYPE_LSI) == RCC_OSCILLATORTYPE_LSI)
 80008f0:	6823      	ldr	r3, [r4, #0]
 80008f2:	071e      	lsls	r6, r3, #28
 80008f4:	f100 80f4 	bmi.w	8000ae0 <HAL_RCC_OscConfig+0x204>
        }
      }
    }
  }
  /*------------------------------ LSE Configuration -------------------------*/ 
  if(((RCC_OscInitStruct->OscillatorType) & RCC_OSCILLATORTYPE_LSE) == RCC_OSCILLATORTYPE_LSE)
 80008f8:	6823      	ldr	r3, [r4, #0]
 80008fa:	075d      	lsls	r5, r3, #29
 80008fc:	f100 8140 	bmi.w	8000b80 <HAL_RCC_OscConfig+0x2a4>
  }

  /*-------------------------------- PLL Configuration -----------------------*/
  /* Check the parameters */
  assert_param(IS_RCC_PLL(RCC_OscInitStruct->PLL.PLLState));
  if ((RCC_OscInitStruct->PLL.PLLState) != RCC_PLL_NONE)
 8000900:	69e2      	ldr	r2, [r4, #28]
 8000902:	2a00      	cmp	r2, #0
 8000904:	f040 81cb 	bne.w	8000c9e <HAL_RCC_OscConfig+0x3c2>
    {
      return HAL_ERROR;
    }
  }
  
  return HAL_OK;
 8000908:	2000      	movs	r0, #0
 800090a:	e021      	b.n	8000950 <HAL_RCC_OscConfig+0x74>
    if((__HAL_RCC_GET_SYSCLK_SOURCE() == RCC_SYSCLKSOURCE_STATUS_HSE) 
 800090c:	499a      	ldr	r1, [pc, #616]	; (8000b78 <HAL_RCC_OscConfig+0x29c>)
 800090e:	684b      	ldr	r3, [r1, #4]
 8000910:	f003 030c 	and.w	r3, r3, #12
 8000914:	2b04      	cmp	r3, #4
 8000916:	d007      	beq.n	8000928 <HAL_RCC_OscConfig+0x4c>
       || ((__HAL_RCC_GET_SYSCLK_SOURCE() == RCC_SYSCLKSOURCE_STATUS_PLLCLK) && (__HAL_RCC_GET_PLL_OSCSOURCE() == RCC_PLLSOURCE_HSE)))
 8000918:	684b      	ldr	r3, [r1, #4]
 800091a:	f003 030c 	and.w	r3, r3, #12
 800091e:	2b08      	cmp	r3, #8
 8000920:	d119      	bne.n	8000956 <HAL_RCC_OscConfig+0x7a>
 8000922:	684b      	ldr	r3, [r1, #4]
 8000924:	03db      	lsls	r3, r3, #15
 8000926:	d516      	bpl.n	8000956 <HAL_RCC_OscConfig+0x7a>
__attribute__((always_inline)) __STATIC_INLINE uint32_t __RBIT(uint32_t value)
{
  uint32_t result;

#if       (__CORTEX_M >= 0x03U) || (__CORTEX_SC >= 300U)
   __ASM volatile ("rbit %0, %1" : "=r" (result) : "r" (value) );
 8000928:	f44f 3300 	mov.w	r3, #131072	; 0x20000
 800092c:	fa93 f2a3 	rbit	r2, r3
      if((__HAL_RCC_GET_FLAG(RCC_FLAG_HSERDY) != RESET) && (RCC_OscInitStruct->HSEState == RCC_HSE_OFF))
 8000930:	6809      	ldr	r1, [r1, #0]
 8000932:	fa93 f3a3 	rbit	r3, r3
 8000936:	fab3 f383 	clz	r3, r3
 800093a:	f003 031f 	and.w	r3, r3, #31
 800093e:	2201      	movs	r2, #1
 8000940:	fa02 f303 	lsl.w	r3, r2, r3
 8000944:	420b      	tst	r3, r1
 8000946:	d0cf      	beq.n	80008e8 <HAL_RCC_OscConfig+0xc>
 8000948:	6863      	ldr	r3, [r4, #4]
 800094a:	2b00      	cmp	r3, #0
 800094c:	d1cc      	bne.n	80008e8 <HAL_RCC_OscConfig+0xc>
        return HAL_ERROR;
 800094e:	2001      	movs	r0, #1
}
 8000950:	b002      	add	sp, #8
 8000952:	e8bd 81f0 	ldmia.w	sp!, {r4, r5, r6, r7, r8, pc}
      __HAL_RCC_HSE_CONFIG(RCC_OscInitStruct->HSEState);
 8000956:	6862      	ldr	r2, [r4, #4]
 8000958:	f5b2 3f80 	cmp.w	r2, #65536	; 0x10000
 800095c:	d124      	bne.n	80009a8 <HAL_RCC_OscConfig+0xcc>
 800095e:	680b      	ldr	r3, [r1, #0]
 8000960:	f443 3380 	orr.w	r3, r3, #65536	; 0x10000
 8000964:	600b      	str	r3, [r1, #0]
      __HAL_RCC_HSE_PREDIV_CONFIG(RCC_OscInitStruct->HSEPredivValue);
 8000966:	6acb      	ldr	r3, [r1, #44]	; 0x2c
 8000968:	68a0      	ldr	r0, [r4, #8]
 800096a:	f023 030f 	bic.w	r3, r3, #15
 800096e:	4303      	orrs	r3, r0
 8000970:	62cb      	str	r3, [r1, #44]	; 0x2c
      if(RCC_OscInitStruct->HSEState != RCC_HSE_OFF)
 8000972:	b34a      	cbz	r2, 80009c8 <HAL_RCC_OscConfig+0xec>
        tickstart = HAL_GetTick();
 8000974:	f7ff ffaa 	bl	80008cc <HAL_GetTick>
 8000978:	f44f 3600 	mov.w	r6, #131072	; 0x20000
 800097c:	4605      	mov	r5, r0
        while(__HAL_RCC_GET_FLAG(RCC_FLAG_HSERDY) == RESET)
 800097e:	2701      	movs	r7, #1
 8000980:	fa96 f3a6 	rbit	r3, r6
 8000984:	680a      	ldr	r2, [r1, #0]
 8000986:	fa96 f3a6 	rbit	r3, r6
 800098a:	fab3 f383 	clz	r3, r3
 800098e:	f003 031f 	and.w	r3, r3, #31
 8000992:	fa07 f303 	lsl.w	r3, r7, r3
 8000996:	4213      	tst	r3, r2
 8000998:	d1a6      	bne.n	80008e8 <HAL_RCC_OscConfig+0xc>
          if((HAL_GetTick() - tickstart ) > HSE_TIMEOUT_VALUE)
 800099a:	f7ff ff97 	bl	80008cc <HAL_GetTick>
 800099e:	1b40      	subs	r0, r0, r5
 80009a0:	2864      	cmp	r0, #100	; 0x64
 80009a2:	d9ed      	bls.n	8000980 <HAL_RCC_OscConfig+0xa4>
            return HAL_TIMEOUT;
 80009a4:	2003      	movs	r0, #3
 80009a6:	e7d3      	b.n	8000950 <HAL_RCC_OscConfig+0x74>
      __HAL_RCC_HSE_CONFIG(RCC_OscInitStruct->HSEState);
 80009a8:	680b      	ldr	r3, [r1, #0]
 80009aa:	b932      	cbnz	r2, 80009ba <HAL_RCC_OscConfig+0xde>
 80009ac:	f423 3380 	bic.w	r3, r3, #65536	; 0x10000
 80009b0:	600b      	str	r3, [r1, #0]
 80009b2:	680b      	ldr	r3, [r1, #0]
 80009b4:	f423 2380 	bic.w	r3, r3, #262144	; 0x40000
 80009b8:	e7d4      	b.n	8000964 <HAL_RCC_OscConfig+0x88>
 80009ba:	f5b2 2fa0 	cmp.w	r2, #327680	; 0x50000
 80009be:	d1f5      	bne.n	80009ac <HAL_RCC_OscConfig+0xd0>
 80009c0:	f443 2380 	orr.w	r3, r3, #262144	; 0x40000
 80009c4:	600b      	str	r3, [r1, #0]
 80009c6:	e7ca      	b.n	800095e <HAL_RCC_OscConfig+0x82>
        tickstart = HAL_GetTick();
 80009c8:	f7ff ff80 	bl	80008cc <HAL_GetTick>
 80009cc:	f44f 3600 	mov.w	r6, #131072	; 0x20000
 80009d0:	4605      	mov	r5, r0
        while(__HAL_RCC_GET_FLAG(RCC_FLAG_HSERDY) != RESET)
 80009d2:	2701      	movs	r7, #1
 80009d4:	fa96 f3a6 	rbit	r3, r6
 80009d8:	680a      	ldr	r2, [r1, #0]
 80009da:	fa96 f3a6 	rbit	r3, r6
 80009de:	fab3 f383 	clz	r3, r3
 80009e2:	f003 031f 	and.w	r3, r3, #31
 80009e6:	fa07 f303 	lsl.w	r3, r7, r3
 80009ea:	4213      	tst	r3, r2
 80009ec:	f43f af7c 	beq.w	80008e8 <HAL_RCC_OscConfig+0xc>
           if((HAL_GetTick() - tickstart ) > HSE_TIMEOUT_VALUE)
 80009f0:	f7ff ff6c 	bl	80008cc <HAL_GetTick>
 80009f4:	1b40      	subs	r0, r0, r5
 80009f6:	2864      	cmp	r0, #100	; 0x64
 80009f8:	d9ec      	bls.n	80009d4 <HAL_RCC_OscConfig+0xf8>
 80009fa:	e7d3      	b.n	80009a4 <HAL_RCC_OscConfig+0xc8>
    if((__HAL_RCC_GET_SYSCLK_SOURCE() == RCC_SYSCLKSOURCE_STATUS_HSI) 
 80009fc:	495e      	ldr	r1, [pc, #376]	; (8000b78 <HAL_RCC_OscConfig+0x29c>)
 80009fe:	684b      	ldr	r3, [r1, #4]
 8000a00:	f013 0f0c 	tst.w	r3, #12
 8000a04:	d007      	beq.n	8000a16 <HAL_RCC_OscConfig+0x13a>
       || ((__HAL_RCC_GET_SYSCLK_SOURCE() == RCC_SYSCLKSOURCE_STATUS_PLLCLK) && (__HAL_RCC_GET_PLL_OSCSOURCE() == RCC_PLLSOURCE_HSI)))
 8000a06:	684b      	ldr	r3, [r1, #4]
 8000a08:	f003 030c 	and.w	r3, r3, #12
 8000a0c:	2b08      	cmp	r3, #8
 8000a0e:	d121      	bne.n	8000a54 <HAL_RCC_OscConfig+0x178>
 8000a10:	684b      	ldr	r3, [r1, #4]
 8000a12:	03df      	lsls	r7, r3, #15
 8000a14:	d41e      	bmi.n	8000a54 <HAL_RCC_OscConfig+0x178>
 8000a16:	2302      	movs	r3, #2
 8000a18:	fa93 f2a3 	rbit	r2, r3
      if((__HAL_RCC_GET_FLAG(RCC_FLAG_HSIRDY) != RESET) && (RCC_OscInitStruct->HSIState != RCC_HSI_ON))
 8000a1c:	6808      	ldr	r0, [r1, #0]
 8000a1e:	fa93 f3a3 	rbit	r3, r3
 8000a22:	fab3 f383 	clz	r3, r3
 8000a26:	f003 031f 	and.w	r3, r3, #31
 8000a2a:	2201      	movs	r2, #1
 8000a2c:	fa02 f303 	lsl.w	r3, r2, r3
 8000a30:	4203      	tst	r3, r0
 8000a32:	d002      	beq.n	8000a3a <HAL_RCC_OscConfig+0x15e>
 8000a34:	6923      	ldr	r3, [r4, #16]
 8000a36:	4293      	cmp	r3, r2
 8000a38:	d189      	bne.n	800094e <HAL_RCC_OscConfig+0x72>
        __HAL_RCC_HSI_CALIBRATIONVALUE_ADJUST(RCC_OscInitStruct->HSICalibrationValue);
 8000a3a:	6808      	ldr	r0, [r1, #0]
 8000a3c:	23f8      	movs	r3, #248	; 0xf8
 8000a3e:	fa93 f3a3 	rbit	r3, r3
 8000a42:	fab3 f283 	clz	r2, r3
 8000a46:	6963      	ldr	r3, [r4, #20]
 8000a48:	4093      	lsls	r3, r2
 8000a4a:	f020 02f8 	bic.w	r2, r0, #248	; 0xf8
 8000a4e:	4313      	orrs	r3, r2
 8000a50:	600b      	str	r3, [r1, #0]
 8000a52:	e74d      	b.n	80008f0 <HAL_RCC_OscConfig+0x14>
      if(RCC_OscInitStruct->HSIState != RCC_HSI_OFF)
 8000a54:	6922      	ldr	r2, [r4, #16]
 8000a56:	2501      	movs	r5, #1
 8000a58:	b302      	cbz	r2, 8000a9c <HAL_RCC_OscConfig+0x1c0>
 8000a5a:	fa95 f3a5 	rbit	r3, r5
        __HAL_RCC_HSI_ENABLE();
 8000a5e:	fab3 f383 	clz	r3, r3
 8000a62:	f103 5384 	add.w	r3, r3, #276824064	; 0x10800000
 8000a66:	f503 1384 	add.w	r3, r3, #1081344	; 0x108000
 8000a6a:	009b      	lsls	r3, r3, #2
 8000a6c:	2702      	movs	r7, #2
 8000a6e:	601d      	str	r5, [r3, #0]
        tickstart = HAL_GetTick();
 8000a70:	f7ff ff2c 	bl	80008cc <HAL_GetTick>
 8000a74:	4606      	mov	r6, r0
 8000a76:	fa97 f3a7 	rbit	r3, r7
        while(__HAL_RCC_GET_FLAG(RCC_FLAG_HSIRDY) == RESET)
 8000a7a:	680a      	ldr	r2, [r1, #0]
 8000a7c:	fa97 f3a7 	rbit	r3, r7
 8000a80:	fab3 f383 	clz	r3, r3
 8000a84:	f003 031f 	and.w	r3, r3, #31
 8000a88:	fa05 f303 	lsl.w	r3, r5, r3
 8000a8c:	4213      	tst	r3, r2
 8000a8e:	d1d4      	bne.n	8000a3a <HAL_RCC_OscConfig+0x15e>
          if((HAL_GetTick() - tickstart ) > HSI_TIMEOUT_VALUE)
 8000a90:	f7ff ff1c 	bl	80008cc <HAL_GetTick>
 8000a94:	1b80      	subs	r0, r0, r6
 8000a96:	2802      	cmp	r0, #2
 8000a98:	d9ed      	bls.n	8000a76 <HAL_RCC_OscConfig+0x19a>
 8000a9a:	e783      	b.n	80009a4 <HAL_RCC_OscConfig+0xc8>
 8000a9c:	fa95 f3a5 	rbit	r3, r5
        __HAL_RCC_HSI_DISABLE();
 8000aa0:	fab3 f383 	clz	r3, r3
 8000aa4:	f103 5384 	add.w	r3, r3, #276824064	; 0x10800000
 8000aa8:	f503 1384 	add.w	r3, r3, #1081344	; 0x108000
 8000aac:	009b      	lsls	r3, r3, #2
 8000aae:	2702      	movs	r7, #2
 8000ab0:	601a      	str	r2, [r3, #0]
        tickstart = HAL_GetTick();
 8000ab2:	f7ff ff0b 	bl	80008cc <HAL_GetTick>
 8000ab6:	4606      	mov	r6, r0
 8000ab8:	fa97 f3a7 	rbit	r3, r7
        while(__HAL_RCC_GET_FLAG(RCC_FLAG_HSIRDY) != RESET)
 8000abc:	680a      	ldr	r2, [r1, #0]
 8000abe:	fa97 f3a7 	rbit	r3, r7
 8000ac2:	fab3 f383 	clz	r3, r3
 8000ac6:	f003 031f 	and.w	r3, r3, #31
 8000aca:	fa05 f303 	lsl.w	r3, r5, r3
 8000ace:	4213      	tst	r3, r2
 8000ad0:	f43f af0e 	beq.w	80008f0 <HAL_RCC_OscConfig+0x14>
          if((HAL_GetTick() - tickstart ) > HSI_TIMEOUT_VALUE)
 8000ad4:	f7ff fefa 	bl	80008cc <HAL_GetTick>
 8000ad8:	1b80      	subs	r0, r0, r6
 8000ada:	2802      	cmp	r0, #2
 8000adc:	d9ec      	bls.n	8000ab8 <HAL_RCC_OscConfig+0x1dc>
 8000ade:	e761      	b.n	80009a4 <HAL_RCC_OscConfig+0xc8>
    if(RCC_OscInitStruct->LSIState != RCC_LSI_OFF)
 8000ae0:	69a2      	ldr	r2, [r4, #24]
 8000ae2:	4d25      	ldr	r5, [pc, #148]	; (8000b78 <HAL_RCC_OscConfig+0x29c>)
 8000ae4:	4825      	ldr	r0, [pc, #148]	; (8000b7c <HAL_RCC_OscConfig+0x2a0>)
 8000ae6:	2101      	movs	r1, #1
 8000ae8:	b312      	cbz	r2, 8000b30 <HAL_RCC_OscConfig+0x254>
 8000aea:	fa91 f3a1 	rbit	r3, r1
      __HAL_RCC_LSI_ENABLE();
 8000aee:	fab3 f383 	clz	r3, r3
 8000af2:	4403      	add	r3, r0
 8000af4:	009b      	lsls	r3, r3, #2
 8000af6:	2602      	movs	r6, #2
 8000af8:	6019      	str	r1, [r3, #0]
      tickstart = HAL_GetTick();
 8000afa:	f7ff fee7 	bl	80008cc <HAL_GetTick>
 8000afe:	4607      	mov	r7, r0
 8000b00:	fa96 f3a6 	rbit	r3, r6
 8000b04:	fa96 f3a6 	rbit	r3, r6
 8000b08:	fa96 f3a6 	rbit	r3, r6
      while(__HAL_RCC_GET_FLAG(RCC_FLAG_LSIRDY) == RESET)
 8000b0c:	6a6a      	ldr	r2, [r5, #36]	; 0x24
 8000b0e:	fa96 f3a6 	rbit	r3, r6
 8000b12:	fab3 f383 	clz	r3, r3
 8000b16:	f003 031f 	and.w	r3, r3, #31
 8000b1a:	fa01 f303 	lsl.w	r3, r1, r3
 8000b1e:	4213      	tst	r3, r2
 8000b20:	f47f aeea 	bne.w	80008f8 <HAL_RCC_OscConfig+0x1c>
        if((HAL_GetTick() - tickstart ) > LSI_TIMEOUT_VALUE)
 8000b24:	f7ff fed2 	bl	80008cc <HAL_GetTick>
 8000b28:	1bc0      	subs	r0, r0, r7
 8000b2a:	2802      	cmp	r0, #2
 8000b2c:	d9e8      	bls.n	8000b00 <HAL_RCC_OscConfig+0x224>
 8000b2e:	e739      	b.n	80009a4 <HAL_RCC_OscConfig+0xc8>
 8000b30:	fa91 f3a1 	rbit	r3, r1
      __HAL_RCC_LSI_DISABLE();
 8000b34:	fab3 f383 	clz	r3, r3
 8000b38:	4403      	add	r3, r0
 8000b3a:	009b      	lsls	r3, r3, #2
 8000b3c:	2602      	movs	r6, #2
 8000b3e:	601a      	str	r2, [r3, #0]
      tickstart = HAL_GetTick();
 8000b40:	f7ff fec4 	bl	80008cc <HAL_GetTick>
 8000b44:	4607      	mov	r7, r0
 8000b46:	fa96 f3a6 	rbit	r3, r6
 8000b4a:	fa96 f3a6 	rbit	r3, r6
 8000b4e:	fa96 f3a6 	rbit	r3, r6
      while(__HAL_RCC_GET_FLAG(RCC_FLAG_LSIRDY) != RESET)
 8000b52:	6a6a      	ldr	r2, [r5, #36]	; 0x24
 8000b54:	fa96 f3a6 	rbit	r3, r6
 8000b58:	fab3 f383 	clz	r3, r3
 8000b5c:	f003 031f 	and.w	r3, r3, #31
 8000b60:	fa01 f303 	lsl.w	r3, r1, r3
 8000b64:	4213      	tst	r3, r2
 8000b66:	f43f aec7 	beq.w	80008f8 <HAL_RCC_OscConfig+0x1c>
        if((HAL_GetTick() - tickstart ) > LSI_TIMEOUT_VALUE)
 8000b6a:	f7ff feaf 	bl	80008cc <HAL_GetTick>
 8000b6e:	1bc0      	subs	r0, r0, r7
 8000b70:	2802      	cmp	r0, #2
 8000b72:	d9e8      	bls.n	8000b46 <HAL_RCC_OscConfig+0x26a>
 8000b74:	e716      	b.n	80009a4 <HAL_RCC_OscConfig+0xc8>
 8000b76:	bf00      	nop
 8000b78:	40021000 	.word	0x40021000
 8000b7c:	10908120 	.word	0x10908120
    if(__HAL_RCC_PWR_IS_CLK_DISABLED())
 8000b80:	498a      	ldr	r1, [pc, #552]	; (8000dac <HAL_RCC_OscConfig+0x4d0>)
 8000b82:	69cb      	ldr	r3, [r1, #28]
 8000b84:	00d8      	lsls	r0, r3, #3
 8000b86:	d433      	bmi.n	8000bf0 <HAL_RCC_OscConfig+0x314>
      __HAL_RCC_PWR_CLK_ENABLE();
 8000b88:	69cb      	ldr	r3, [r1, #28]
 8000b8a:	f043 5380 	orr.w	r3, r3, #268435456	; 0x10000000
 8000b8e:	61cb      	str	r3, [r1, #28]
 8000b90:	69cb      	ldr	r3, [r1, #28]
 8000b92:	f003 5380 	and.w	r3, r3, #268435456	; 0x10000000
 8000b96:	9301      	str	r3, [sp, #4]
 8000b98:	9b01      	ldr	r3, [sp, #4]
      pwrclkchanged = SET;
 8000b9a:	2501      	movs	r5, #1
    if(HAL_IS_BIT_CLR(PWR->CR, PWR_CR_DBP))
 8000b9c:	4e84      	ldr	r6, [pc, #528]	; (8000db0 <HAL_RCC_OscConfig+0x4d4>)
 8000b9e:	6833      	ldr	r3, [r6, #0]
 8000ba0:	05da      	lsls	r2, r3, #23
 8000ba2:	d527      	bpl.n	8000bf4 <HAL_RCC_OscConfig+0x318>
    __HAL_RCC_LSE_CONFIG(RCC_OscInitStruct->LSEState);
 8000ba4:	68e3      	ldr	r3, [r4, #12]
 8000ba6:	2b01      	cmp	r3, #1
 8000ba8:	d134      	bne.n	8000c14 <HAL_RCC_OscConfig+0x338>
 8000baa:	6a0b      	ldr	r3, [r1, #32]
 8000bac:	f043 0301 	orr.w	r3, r3, #1
 8000bb0:	620b      	str	r3, [r1, #32]
      tickstart = HAL_GetTick();
 8000bb2:	f7ff fe8b 	bl	80008cc <HAL_GetTick>
 8000bb6:	2602      	movs	r6, #2
 8000bb8:	4607      	mov	r7, r0
      while(__HAL_RCC_GET_FLAG(RCC_FLAG_LSERDY) == RESET)
 8000bba:	f04f 0801 	mov.w	r8, #1
 8000bbe:	fa96 f3a6 	rbit	r3, r6
 8000bc2:	fa96 f3a6 	rbit	r3, r6
 8000bc6:	2b00      	cmp	r3, #0
 8000bc8:	d061      	beq.n	8000c8e <HAL_RCC_OscConfig+0x3b2>
 8000bca:	6a0a      	ldr	r2, [r1, #32]
 8000bcc:	fa96 f3a6 	rbit	r3, r6
 8000bd0:	fab3 f383 	clz	r3, r3
 8000bd4:	f003 031f 	and.w	r3, r3, #31
 8000bd8:	fa08 f303 	lsl.w	r3, r8, r3
 8000bdc:	4213      	tst	r3, r2
 8000bde:	d04e      	beq.n	8000c7e <HAL_RCC_OscConfig+0x3a2>
    if(pwrclkchanged == SET)
 8000be0:	2d00      	cmp	r5, #0
 8000be2:	f43f ae8d 	beq.w	8000900 <HAL_RCC_OscConfig+0x24>
      __HAL_RCC_PWR_CLK_DISABLE();
 8000be6:	69cb      	ldr	r3, [r1, #28]
 8000be8:	f023 5380 	bic.w	r3, r3, #268435456	; 0x10000000
 8000bec:	61cb      	str	r3, [r1, #28]
 8000bee:	e687      	b.n	8000900 <HAL_RCC_OscConfig+0x24>
    FlagStatus       pwrclkchanged = RESET;
 8000bf0:	2500      	movs	r5, #0
 8000bf2:	e7d3      	b.n	8000b9c <HAL_RCC_OscConfig+0x2c0>
      SET_BIT(PWR->CR, PWR_CR_DBP);
 8000bf4:	6833      	ldr	r3, [r6, #0]
 8000bf6:	f443 7380 	orr.w	r3, r3, #256	; 0x100
 8000bfa:	6033      	str	r3, [r6, #0]
      tickstart = HAL_GetTick();
 8000bfc:	f7ff fe66 	bl	80008cc <HAL_GetTick>
 8000c00:	4607      	mov	r7, r0
      while(HAL_IS_BIT_CLR(PWR->CR, PWR_CR_DBP))
 8000c02:	6833      	ldr	r3, [r6, #0]
 8000c04:	05db      	lsls	r3, r3, #23
 8000c06:	d4cd      	bmi.n	8000ba4 <HAL_RCC_OscConfig+0x2c8>
        if((HAL_GetTick() - tickstart) > RCC_DBP_TIMEOUT_VALUE)
 8000c08:	f7ff fe60 	bl	80008cc <HAL_GetTick>
 8000c0c:	1bc0      	subs	r0, r0, r7
 8000c0e:	2864      	cmp	r0, #100	; 0x64
 8000c10:	d9f7      	bls.n	8000c02 <HAL_RCC_OscConfig+0x326>
 8000c12:	e6c7      	b.n	80009a4 <HAL_RCC_OscConfig+0xc8>
    __HAL_RCC_LSE_CONFIG(RCC_OscInitStruct->LSEState);
 8000c14:	bb2b      	cbnz	r3, 8000c62 <HAL_RCC_OscConfig+0x386>
 8000c16:	6a0b      	ldr	r3, [r1, #32]
 8000c18:	f023 0301 	bic.w	r3, r3, #1
 8000c1c:	620b      	str	r3, [r1, #32]
 8000c1e:	6a0b      	ldr	r3, [r1, #32]
 8000c20:	f023 0304 	bic.w	r3, r3, #4
 8000c24:	620b      	str	r3, [r1, #32]
      tickstart = HAL_GetTick();
 8000c26:	f7ff fe51 	bl	80008cc <HAL_GetTick>
 8000c2a:	2602      	movs	r6, #2
 8000c2c:	4607      	mov	r7, r0
      while(__HAL_RCC_GET_FLAG(RCC_FLAG_LSERDY) != RESET)
 8000c2e:	f04f 0801 	mov.w	r8, #1
 8000c32:	fa96 f3a6 	rbit	r3, r6
 8000c36:	fa96 f3a6 	rbit	r3, r6
 8000c3a:	b363      	cbz	r3, 8000c96 <HAL_RCC_OscConfig+0x3ba>
 8000c3c:	6a0a      	ldr	r2, [r1, #32]
 8000c3e:	fa96 f3a6 	rbit	r3, r6
 8000c42:	fab3 f383 	clz	r3, r3
 8000c46:	f003 031f 	and.w	r3, r3, #31
 8000c4a:	fa08 f303 	lsl.w	r3, r8, r3
 8000c4e:	4213      	tst	r3, r2
 8000c50:	d0c6      	beq.n	8000be0 <HAL_RCC_OscConfig+0x304>
        if((HAL_GetTick() - tickstart ) > RCC_LSE_TIMEOUT_VALUE)
 8000c52:	f7ff fe3b 	bl	80008cc <HAL_GetTick>
 8000c56:	f241 3388 	movw	r3, #5000	; 0x1388
 8000c5a:	1bc0      	subs	r0, r0, r7
 8000c5c:	4298      	cmp	r0, r3
 8000c5e:	d9e8      	bls.n	8000c32 <HAL_RCC_OscConfig+0x356>
 8000c60:	e6a0      	b.n	80009a4 <HAL_RCC_OscConfig+0xc8>
    __HAL_RCC_LSE_CONFIG(RCC_OscInitStruct->LSEState);
 8000c62:	2b05      	cmp	r3, #5
 8000c64:	6a0b      	ldr	r3, [r1, #32]
 8000c66:	d103      	bne.n	8000c70 <HAL_RCC_OscConfig+0x394>
 8000c68:	f043 0304 	orr.w	r3, r3, #4
 8000c6c:	620b      	str	r3, [r1, #32]
 8000c6e:	e79c      	b.n	8000baa <HAL_RCC_OscConfig+0x2ce>
 8000c70:	f023 0301 	bic.w	r3, r3, #1
 8000c74:	620b      	str	r3, [r1, #32]
 8000c76:	6a0b      	ldr	r3, [r1, #32]
 8000c78:	f023 0304 	bic.w	r3, r3, #4
 8000c7c:	e798      	b.n	8000bb0 <HAL_RCC_OscConfig+0x2d4>
        if((HAL_GetTick() - tickstart ) > RCC_LSE_TIMEOUT_VALUE)
 8000c7e:	f7ff fe25 	bl	80008cc <HAL_GetTick>
 8000c82:	f241 3388 	movw	r3, #5000	; 0x1388
 8000c86:	1bc0      	subs	r0, r0, r7
 8000c88:	4298      	cmp	r0, r3
 8000c8a:	d998      	bls.n	8000bbe <HAL_RCC_OscConfig+0x2e2>
 8000c8c:	e68a      	b.n	80009a4 <HAL_RCC_OscConfig+0xc8>
 8000c8e:	fa96 f3a6 	rbit	r3, r6
      while(__HAL_RCC_GET_FLAG(RCC_FLAG_LSERDY) == RESET)
 8000c92:	6a4a      	ldr	r2, [r1, #36]	; 0x24
 8000c94:	e79a      	b.n	8000bcc <HAL_RCC_OscConfig+0x2f0>
 8000c96:	fa96 f3a6 	rbit	r3, r6
      while(__HAL_RCC_GET_FLAG(RCC_FLAG_LSERDY) != RESET)
 8000c9a:	6a4a      	ldr	r2, [r1, #36]	; 0x24
 8000c9c:	e7cf      	b.n	8000c3e <HAL_RCC_OscConfig+0x362>
    if(__HAL_RCC_GET_SYSCLK_SOURCE() != RCC_SYSCLKSOURCE_STATUS_PLLCLK)
 8000c9e:	4943      	ldr	r1, [pc, #268]	; (8000dac <HAL_RCC_OscConfig+0x4d0>)
 8000ca0:	684b      	ldr	r3, [r1, #4]
 8000ca2:	f003 030c 	and.w	r3, r3, #12
 8000ca6:	2b08      	cmp	r3, #8
 8000ca8:	f43f ae51 	beq.w	800094e <HAL_RCC_OscConfig+0x72>
      if((RCC_OscInitStruct->PLL.PLLState) == RCC_PLL_ON)
 8000cac:	2a02      	cmp	r2, #2
 8000cae:	f04f 7380 	mov.w	r3, #16777216	; 0x1000000
 8000cb2:	d154      	bne.n	8000d5e <HAL_RCC_OscConfig+0x482>
 8000cb4:	fa93 f3a3 	rbit	r3, r3
        __HAL_RCC_PLL_DISABLE();
 8000cb8:	fab3 f383 	clz	r3, r3
 8000cbc:	f103 5384 	add.w	r3, r3, #276824064	; 0x10800000
 8000cc0:	f503 1384 	add.w	r3, r3, #1081344	; 0x108000
 8000cc4:	009b      	lsls	r3, r3, #2
 8000cc6:	2200      	movs	r2, #0
 8000cc8:	601a      	str	r2, [r3, #0]
        tickstart = HAL_GetTick();
 8000cca:	f7ff fdff 	bl	80008cc <HAL_GetTick>
          if((HAL_GetTick() - tickstart ) > PLL_TIMEOUT_VALUE)
 8000cce:	f8df 80e4 	ldr.w	r8, [pc, #228]	; 8000db4 <HAL_RCC_OscConfig+0x4d8>
        tickstart = HAL_GetTick();
 8000cd2:	4606      	mov	r6, r0
 8000cd4:	f04f 7700 	mov.w	r7, #33554432	; 0x2000000
        while(__HAL_RCC_GET_FLAG(RCC_FLAG_PLLRDY)  != RESET)
 8000cd8:	2501      	movs	r5, #1
 8000cda:	fa97 f3a7 	rbit	r3, r7
 8000cde:	680a      	ldr	r2, [r1, #0]
 8000ce0:	fa97 f3a7 	rbit	r3, r7
 8000ce4:	fab3 f383 	clz	r3, r3
 8000ce8:	f003 031f 	and.w	r3, r3, #31
 8000cec:	fa05 f303 	lsl.w	r3, r5, r3
 8000cf0:	4213      	tst	r3, r2
 8000cf2:	d12e      	bne.n	8000d52 <HAL_RCC_OscConfig+0x476>
      __HAL_RCC_PLL_CONFIG(RCC_OscInitStruct->PLL.PLLSource,
 8000cf4:	e9d4 0308 	ldrd	r0, r3, [r4, #32]
 8000cf8:	684a      	ldr	r2, [r1, #4]
 8000cfa:	4303      	orrs	r3, r0
 8000cfc:	f422 1274 	bic.w	r2, r2, #3997696	; 0x3d0000
 8000d00:	4313      	orrs	r3, r2
 8000d02:	604b      	str	r3, [r1, #4]
 8000d04:	f04f 7380 	mov.w	r3, #16777216	; 0x1000000
 8000d08:	fa93 f3a3 	rbit	r3, r3
        __HAL_RCC_PLL_ENABLE();
 8000d0c:	fab3 f383 	clz	r3, r3
 8000d10:	f103 5384 	add.w	r3, r3, #276824064	; 0x10800000
 8000d14:	f503 1384 	add.w	r3, r3, #1081344	; 0x108000
 8000d18:	009b      	lsls	r3, r3, #2
          if((HAL_GetTick() - tickstart ) > PLL_TIMEOUT_VALUE)
 8000d1a:	4f26      	ldr	r7, [pc, #152]	; (8000db4 <HAL_RCC_OscConfig+0x4d8>)
        __HAL_RCC_PLL_ENABLE();
 8000d1c:	601d      	str	r5, [r3, #0]
        tickstart = HAL_GetTick();
 8000d1e:	f7ff fdd5 	bl	80008cc <HAL_GetTick>
 8000d22:	f04f 7500 	mov.w	r5, #33554432	; 0x2000000
 8000d26:	4604      	mov	r4, r0
        while(__HAL_RCC_GET_FLAG(RCC_FLAG_PLLRDY)  == RESET)
 8000d28:	2601      	movs	r6, #1
 8000d2a:	fa95 f3a5 	rbit	r3, r5
 8000d2e:	680a      	ldr	r2, [r1, #0]
 8000d30:	fa95 f3a5 	rbit	r3, r5
 8000d34:	fab3 f383 	clz	r3, r3
 8000d38:	f003 031f 	and.w	r3, r3, #31
 8000d3c:	fa06 f303 	lsl.w	r3, r6, r3
 8000d40:	4213      	tst	r3, r2
 8000d42:	f47f ade1 	bne.w	8000908 <HAL_RCC_OscConfig+0x2c>
          if((HAL_GetTick() - tickstart ) > PLL_TIMEOUT_VALUE)
 8000d46:	f7ff fdc1 	bl	80008cc <HAL_GetTick>
 8000d4a:	1b00      	subs	r0, r0, r4
 8000d4c:	42b8      	cmp	r0, r7
 8000d4e:	d9ec      	bls.n	8000d2a <HAL_RCC_OscConfig+0x44e>
 8000d50:	e628      	b.n	80009a4 <HAL_RCC_OscConfig+0xc8>
          if((HAL_GetTick() - tickstart ) > PLL_TIMEOUT_VALUE)
 8000d52:	f7ff fdbb 	bl	80008cc <HAL_GetTick>
 8000d56:	1b80      	subs	r0, r0, r6
 8000d58:	4540      	cmp	r0, r8
 8000d5a:	d9be      	bls.n	8000cda <HAL_RCC_OscConfig+0x3fe>
 8000d5c:	e622      	b.n	80009a4 <HAL_RCC_OscConfig+0xc8>
 8000d5e:	fa93 f3a3 	rbit	r3, r3
        __HAL_RCC_PLL_DISABLE();
 8000d62:	fab3 f383 	clz	r3, r3
 8000d66:	f103 5384 	add.w	r3, r3, #276824064	; 0x10800000
 8000d6a:	f503 1384 	add.w	r3, r3, #1081344	; 0x108000
 8000d6e:	009b      	lsls	r3, r3, #2
 8000d70:	2200      	movs	r2, #0
 8000d72:	601a      	str	r2, [r3, #0]
        tickstart = HAL_GetTick();
 8000d74:	f7ff fdaa 	bl	80008cc <HAL_GetTick>
          if((HAL_GetTick() - tickstart ) > PLL_TIMEOUT_VALUE)
 8000d78:	4f0e      	ldr	r7, [pc, #56]	; (8000db4 <HAL_RCC_OscConfig+0x4d8>)
        tickstart = HAL_GetTick();
 8000d7a:	4604      	mov	r4, r0
 8000d7c:	f04f 7500 	mov.w	r5, #33554432	; 0x2000000
        while(__HAL_RCC_GET_FLAG(RCC_FLAG_PLLRDY)  != RESET)
 8000d80:	2601      	movs	r6, #1
 8000d82:	fa95 f3a5 	rbit	r3, r5
 8000d86:	680a      	ldr	r2, [r1, #0]
 8000d88:	fa95 f3a5 	rbit	r3, r5
 8000d8c:	fab3 f383 	clz	r3, r3
 8000d90:	f003 031f 	and.w	r3, r3, #31
 8000d94:	fa06 f303 	lsl.w	r3, r6, r3
 8000d98:	4213      	tst	r3, r2
 8000d9a:	f43f adb5 	beq.w	8000908 <HAL_RCC_OscConfig+0x2c>
          if((HAL_GetTick() - tickstart ) > PLL_TIMEOUT_VALUE)
 8000d9e:	f7ff fd95 	bl	80008cc <HAL_GetTick>
 8000da2:	1b00      	subs	r0, r0, r4
 8000da4:	42b8      	cmp	r0, r7
 8000da6:	d9ec      	bls.n	8000d82 <HAL_RCC_OscConfig+0x4a6>
 8000da8:	e5fc      	b.n	80009a4 <HAL_RCC_OscConfig+0xc8>
 8000daa:	bf00      	nop
 8000dac:	40021000 	.word	0x40021000
 8000db0:	40007000 	.word	0x40007000
 8000db4:	00030d40 	.word	0x00030d40

08000db8 <HAL_RCC_ClockConfig>:
  /* To correctly read data from FLASH memory, the number of wait states (LATENCY) 
  must be correctly programmed according to the frequency of the CPU clock 
    (HCLK) of the device. */

  /* Increasing the number of wait states because of higher CPU frequency */
  if(FLatency > (FLASH->ACR & FLASH_ACR_LATENCY))
 8000db8:	4a50      	ldr	r2, [pc, #320]	; (8000efc <HAL_RCC_ClockConfig+0x144>)
{
 8000dba:	b5f8      	push	{r3, r4, r5, r6, r7, lr}
  if(FLatency > (FLASH->ACR & FLASH_ACR_LATENCY))
 8000dbc:	6813      	ldr	r3, [r2, #0]
 8000dbe:	f003 0307 	and.w	r3, r3, #7
 8000dc2:	428b      	cmp	r3, r1
{
 8000dc4:	4604      	mov	r4, r0
  if(FLatency > (FLASH->ACR & FLASH_ACR_LATENCY))
 8000dc6:	d31b      	bcc.n	8000e00 <HAL_RCC_ClockConfig+0x48>
      return HAL_ERROR;
    }
  }

  /*-------------------------- HCLK Configuration --------------------------*/
  if(((RCC_ClkInitStruct->ClockType) & RCC_CLOCKTYPE_HCLK) == RCC_CLOCKTYPE_HCLK)
 8000dc8:	6822      	ldr	r2, [r4, #0]
 8000dca:	0790      	lsls	r0, r2, #30
 8000dcc:	d424      	bmi.n	8000e18 <HAL_RCC_ClockConfig+0x60>
    assert_param(IS_RCC_HCLK(RCC_ClkInitStruct->AHBCLKDivider));
    MODIFY_REG(RCC->CFGR, RCC_CFGR_HPRE, RCC_ClkInitStruct->AHBCLKDivider);
  }

  /*------------------------- SYSCLK Configuration ---------------------------*/ 
  if(((RCC_ClkInitStruct->ClockType) & RCC_CLOCKTYPE_SYSCLK) == RCC_CLOCKTYPE_SYSCLK)
 8000dce:	07d2      	lsls	r2, r2, #31
 8000dd0:	d42a      	bmi.n	8000e28 <HAL_RCC_ClockConfig+0x70>
        }
      }
    }      
  }    
  /* Decreasing the number of wait states because of lower CPU frequency */
  if(FLatency < (FLASH->ACR & FLASH_ACR_LATENCY))
 8000dd2:	4a4a      	ldr	r2, [pc, #296]	; (8000efc <HAL_RCC_ClockConfig+0x144>)
 8000dd4:	6813      	ldr	r3, [r2, #0]
 8000dd6:	f003 0307 	and.w	r3, r3, #7
 8000dda:	428b      	cmp	r3, r1
 8000ddc:	d87a      	bhi.n	8000ed4 <HAL_RCC_ClockConfig+0x11c>
      return HAL_ERROR;
    }
  }    

  /*-------------------------- PCLK1 Configuration ---------------------------*/ 
  if(((RCC_ClkInitStruct->ClockType) & RCC_CLOCKTYPE_PCLK1) == RCC_CLOCKTYPE_PCLK1)
 8000dde:	6820      	ldr	r0, [r4, #0]
 8000de0:	0743      	lsls	r3, r0, #29
 8000de2:	f100 8082 	bmi.w	8000eea <HAL_RCC_ClockConfig+0x132>
    assert_param(IS_RCC_PCLK(RCC_ClkInitStruct->APB1CLKDivider));
    MODIFY_REG(RCC->CFGR, RCC_CFGR_PPRE1, RCC_ClkInitStruct->APB1CLKDivider);
  }
  
  /*-------------------------- PCLK2 Configuration ---------------------------*/ 
  if(((RCC_ClkInitStruct->ClockType) & RCC_CLOCKTYPE_PCLK2) == RCC_CLOCKTYPE_PCLK2)
 8000de6:	f010 0008 	ands.w	r0, r0, #8
 8000dea:	d014      	beq.n	8000e16 <HAL_RCC_ClockConfig+0x5e>
  {
    assert_param(IS_RCC_PCLK(RCC_ClkInitStruct->APB2CLKDivider));
    MODIFY_REG(RCC->CFGR, RCC_CFGR_PPRE2, ((RCC_ClkInitStruct->APB2CLKDivider) << 3U));
 8000dec:	4a44      	ldr	r2, [pc, #272]	; (8000f00 <HAL_RCC_ClockConfig+0x148>)
 8000dee:	6921      	ldr	r1, [r4, #16]
 8000df0:	6853      	ldr	r3, [r2, #4]
 8000df2:	f423 5360 	bic.w	r3, r3, #14336	; 0x3800
 8000df6:	ea43 03c1 	orr.w	r3, r3, r1, lsl #3
 8000dfa:	6053      	str	r3, [r2, #4]
  //SystemCoreClock = HAL_RCC_GetSysClockFreq() >> AHBPrescTable[(RCC->CFGR & RCC_CFGR_HPRE)>> RCC_CFGR_HPRE_BITNUMBER];

  /* Configure the source of time base considering new system clocks settings*/
  //HAL_InitTick (TICK_INT_PRIORITY);
  
  return HAL_OK;
 8000dfc:	2000      	movs	r0, #0
 8000dfe:	e00a      	b.n	8000e16 <HAL_RCC_ClockConfig+0x5e>
    __HAL_FLASH_SET_LATENCY(FLatency);
 8000e00:	6813      	ldr	r3, [r2, #0]
 8000e02:	f023 0307 	bic.w	r3, r3, #7
 8000e06:	430b      	orrs	r3, r1
 8000e08:	6013      	str	r3, [r2, #0]
    if((FLASH->ACR & FLASH_ACR_LATENCY) != FLatency)
 8000e0a:	6813      	ldr	r3, [r2, #0]
 8000e0c:	f003 0307 	and.w	r3, r3, #7
 8000e10:	428b      	cmp	r3, r1
 8000e12:	d0d9      	beq.n	8000dc8 <HAL_RCC_ClockConfig+0x10>
      return HAL_ERROR;
 8000e14:	2001      	movs	r0, #1
}
 8000e16:	bdf8      	pop	{r3, r4, r5, r6, r7, pc}
    MODIFY_REG(RCC->CFGR, RCC_CFGR_HPRE, RCC_ClkInitStruct->AHBCLKDivider);
 8000e18:	4839      	ldr	r0, [pc, #228]	; (8000f00 <HAL_RCC_ClockConfig+0x148>)
 8000e1a:	68a5      	ldr	r5, [r4, #8]
 8000e1c:	6843      	ldr	r3, [r0, #4]
 8000e1e:	f023 03f0 	bic.w	r3, r3, #240	; 0xf0
 8000e22:	432b      	orrs	r3, r5
 8000e24:	6043      	str	r3, [r0, #4]
 8000e26:	e7d2      	b.n	8000dce <HAL_RCC_ClockConfig+0x16>
    if(RCC_ClkInitStruct->SYSCLKSource == RCC_SYSCLKSOURCE_HSE)
 8000e28:	6862      	ldr	r2, [r4, #4]
 8000e2a:	4d35      	ldr	r5, [pc, #212]	; (8000f00 <HAL_RCC_ClockConfig+0x148>)
 8000e2c:	2a01      	cmp	r2, #1
 8000e2e:	d127      	bne.n	8000e80 <HAL_RCC_ClockConfig+0xc8>
 8000e30:	f44f 3300 	mov.w	r3, #131072	; 0x20000
 8000e34:	fa93 f0a3 	rbit	r0, r3
      if(__HAL_RCC_GET_FLAG(RCC_FLAG_HSERDY) == RESET)
 8000e38:	6828      	ldr	r0, [r5, #0]
 8000e3a:	fa93 f3a3 	rbit	r3, r3
 8000e3e:	fab3 f383 	clz	r3, r3
 8000e42:	f003 031f 	and.w	r3, r3, #31
 8000e46:	fa02 f303 	lsl.w	r3, r2, r3
 8000e4a:	4203      	tst	r3, r0
      if(__HAL_RCC_GET_FLAG(RCC_FLAG_HSIRDY) == RESET)
 8000e4c:	d0e2      	beq.n	8000e14 <HAL_RCC_ClockConfig+0x5c>
    __HAL_RCC_SYSCLK_CONFIG(RCC_ClkInitStruct->SYSCLKSource);
 8000e4e:	686b      	ldr	r3, [r5, #4]
 8000e50:	f023 0303 	bic.w	r3, r3, #3
 8000e54:	431a      	orrs	r2, r3
 8000e56:	606a      	str	r2, [r5, #4]
    tickstart = HAL_GetTick();
 8000e58:	f7ff fd38 	bl	80008cc <HAL_GetTick>
    if(RCC_ClkInitStruct->SYSCLKSource == RCC_SYSCLKSOURCE_HSE)
 8000e5c:	6863      	ldr	r3, [r4, #4]
 8000e5e:	2b01      	cmp	r3, #1
    tickstart = HAL_GetTick();
 8000e60:	4606      	mov	r6, r0
        if((HAL_GetTick() - tickstart ) > CLOCKSWITCH_TIMEOUT_VALUE)
 8000e62:	f241 3788 	movw	r7, #5000	; 0x1388
    if(RCC_ClkInitStruct->SYSCLKSource == RCC_SYSCLKSOURCE_HSE)
 8000e66:	d11e      	bne.n	8000ea6 <HAL_RCC_ClockConfig+0xee>
      while (__HAL_RCC_GET_SYSCLK_SOURCE() != RCC_SYSCLKSOURCE_STATUS_HSE)
 8000e68:	686b      	ldr	r3, [r5, #4]
 8000e6a:	f003 030c 	and.w	r3, r3, #12
 8000e6e:	2b04      	cmp	r3, #4
 8000e70:	d0af      	beq.n	8000dd2 <HAL_RCC_ClockConfig+0x1a>
        if((HAL_GetTick() - tickstart ) > CLOCKSWITCH_TIMEOUT_VALUE)
 8000e72:	f7ff fd2b 	bl	80008cc <HAL_GetTick>
 8000e76:	1b80      	subs	r0, r0, r6
 8000e78:	42b8      	cmp	r0, r7
 8000e7a:	d9f5      	bls.n	8000e68 <HAL_RCC_ClockConfig+0xb0>
          return HAL_TIMEOUT;
 8000e7c:	2003      	movs	r0, #3
 8000e7e:	e7ca      	b.n	8000e16 <HAL_RCC_ClockConfig+0x5e>
    else if(RCC_ClkInitStruct->SYSCLKSource == RCC_SYSCLKSOURCE_PLLCLK)
 8000e80:	2a02      	cmp	r2, #2
 8000e82:	bf0c      	ite	eq
 8000e84:	f04f 7300 	moveq.w	r3, #33554432	; 0x2000000
 8000e88:	2302      	movne	r3, #2
 8000e8a:	fa93 f0a3 	rbit	r0, r3
      if(__HAL_RCC_GET_FLAG(RCC_FLAG_HSIRDY) == RESET)
 8000e8e:	682e      	ldr	r6, [r5, #0]
 8000e90:	fa93 f3a3 	rbit	r3, r3
 8000e94:	fab3 f383 	clz	r3, r3
 8000e98:	f003 031f 	and.w	r3, r3, #31
 8000e9c:	2001      	movs	r0, #1
 8000e9e:	fa00 f303 	lsl.w	r3, r0, r3
 8000ea2:	4233      	tst	r3, r6
 8000ea4:	e7d2      	b.n	8000e4c <HAL_RCC_ClockConfig+0x94>
    else if(RCC_ClkInitStruct->SYSCLKSource == RCC_SYSCLKSOURCE_PLLCLK)
 8000ea6:	2b02      	cmp	r3, #2
 8000ea8:	d10f      	bne.n	8000eca <HAL_RCC_ClockConfig+0x112>
      while (__HAL_RCC_GET_SYSCLK_SOURCE() != RCC_SYSCLKSOURCE_STATUS_PLLCLK)
 8000eaa:	686b      	ldr	r3, [r5, #4]
 8000eac:	f003 030c 	and.w	r3, r3, #12
 8000eb0:	2b08      	cmp	r3, #8
 8000eb2:	d08e      	beq.n	8000dd2 <HAL_RCC_ClockConfig+0x1a>
        if((HAL_GetTick() - tickstart ) > CLOCKSWITCH_TIMEOUT_VALUE)
 8000eb4:	f7ff fd0a 	bl	80008cc <HAL_GetTick>
 8000eb8:	1b80      	subs	r0, r0, r6
 8000eba:	42b8      	cmp	r0, r7
 8000ebc:	d9f5      	bls.n	8000eaa <HAL_RCC_ClockConfig+0xf2>
 8000ebe:	e7dd      	b.n	8000e7c <HAL_RCC_ClockConfig+0xc4>
        if((HAL_GetTick() - tickstart ) > CLOCKSWITCH_TIMEOUT_VALUE)
 8000ec0:	f7ff fd04 	bl	80008cc <HAL_GetTick>
 8000ec4:	1b80      	subs	r0, r0, r6
 8000ec6:	42b8      	cmp	r0, r7
 8000ec8:	d8d8      	bhi.n	8000e7c <HAL_RCC_ClockConfig+0xc4>
      while (__HAL_RCC_GET_SYSCLK_SOURCE() != RCC_SYSCLKSOURCE_STATUS_HSI)
 8000eca:	686b      	ldr	r3, [r5, #4]
 8000ecc:	f013 0f0c 	tst.w	r3, #12
 8000ed0:	d1f6      	bne.n	8000ec0 <HAL_RCC_ClockConfig+0x108>
 8000ed2:	e77e      	b.n	8000dd2 <HAL_RCC_ClockConfig+0x1a>
    __HAL_FLASH_SET_LATENCY(FLatency);
 8000ed4:	6813      	ldr	r3, [r2, #0]
 8000ed6:	f023 0307 	bic.w	r3, r3, #7
 8000eda:	430b      	orrs	r3, r1
 8000edc:	6013      	str	r3, [r2, #0]
    if((FLASH->ACR & FLASH_ACR_LATENCY) != FLatency)
 8000ede:	6813      	ldr	r3, [r2, #0]
 8000ee0:	f003 0307 	and.w	r3, r3, #7
 8000ee4:	428b      	cmp	r3, r1
 8000ee6:	d195      	bne.n	8000e14 <HAL_RCC_ClockConfig+0x5c>
 8000ee8:	e779      	b.n	8000dde <HAL_RCC_ClockConfig+0x26>
    MODIFY_REG(RCC->CFGR, RCC_CFGR_PPRE1, RCC_ClkInitStruct->APB1CLKDivider);
 8000eea:	4905      	ldr	r1, [pc, #20]	; (8000f00 <HAL_RCC_ClockConfig+0x148>)
 8000eec:	68e3      	ldr	r3, [r4, #12]
 8000eee:	684a      	ldr	r2, [r1, #4]
 8000ef0:	f422 62e0 	bic.w	r2, r2, #1792	; 0x700
 8000ef4:	431a      	orrs	r2, r3
 8000ef6:	604a      	str	r2, [r1, #4]
 8000ef8:	e775      	b.n	8000de6 <HAL_RCC_ClockConfig+0x2e>
 8000efa:	bf00      	nop
 8000efc:	40022000 	.word	0x40022000
 8000f00:	40021000 	.word	0x40021000

08000f04 <HAL_GPIO_Init>:
  * @param  GPIO_Init: pointer to a GPIO_InitTypeDef structure that contains
  *         the configuration information for the specified GPIO peripheral.
  * @retval None
  */
void HAL_GPIO_Init(GPIO_TypeDef  *GPIOx, GPIO_InitTypeDef *GPIO_Init)
{
 8000f04:	e92d 4ff7 	stmdb	sp!, {r0, r1, r2, r4, r5, r6, r7, r8, r9, sl, fp, lr}
      /*--------------------- EXTI Mode Configuration ------------------------*/
      /* Configure the External Interrupt or event for the current IO */
      if((GPIO_Init->Mode & EXTI_MODE) == EXTI_MODE)
      {
        /* Enable SYSCFG Clock */
        __HAL_RCC_SYSCFG_CLK_ENABLE();
 8000f08:	f8df 8174 	ldr.w	r8, [pc, #372]	; 8001080 <HAL_GPIO_Init+0x17c>
        temp &= ~((0x0FU) << (4U * (position & 0x03U)));
        temp |= (GPIO_GET_INDEX(GPIOx) << (4U * (position & 0x03U)));
        SYSCFG->EXTICR[position >> 2] = temp;

        /* Clear EXTI line configuration */
        temp = EXTI->IMR;
 8000f0c:	4c5d      	ldr	r4, [pc, #372]	; (8001084 <HAL_GPIO_Init+0x180>)
  uint32_t position = 0x00U;
 8000f0e:	2300      	movs	r3, #0
    iocurrent = (GPIO_Init->Pin) & (1U << position);
 8000f10:	f04f 0901 	mov.w	r9, #1
  while (((GPIO_Init->Pin) >> position) != RESET)
 8000f14:	680a      	ldr	r2, [r1, #0]
 8000f16:	fa32 f503 	lsrs.w	r5, r2, r3
 8000f1a:	d102      	bne.n	8000f22 <HAL_GPIO_Init+0x1e>
      }
    }
    
    position++;
  }
}
 8000f1c:	b003      	add	sp, #12
 8000f1e:	e8bd 8ff0 	ldmia.w	sp!, {r4, r5, r6, r7, r8, r9, sl, fp, pc}
    iocurrent = (GPIO_Init->Pin) & (1U << position);
 8000f22:	fa09 fa03 	lsl.w	sl, r9, r3
    if(iocurrent)
 8000f26:	ea1a 0202 	ands.w	r2, sl, r2
 8000f2a:	f000 809e 	beq.w	800106a <HAL_GPIO_Init+0x166>
      if((GPIO_Init->Mode == GPIO_MODE_AF_PP) || (GPIO_Init->Mode == GPIO_MODE_AF_OD))
 8000f2e:	684d      	ldr	r5, [r1, #4]
 8000f30:	f025 0e10 	bic.w	lr, r5, #16
 8000f34:	f1be 0f02 	cmp.w	lr, #2
 8000f38:	d114      	bne.n	8000f64 <HAL_GPIO_Init+0x60>
        temp = GPIOx->AFR[position >> 3];
 8000f3a:	ea4f 0cd3 	mov.w	ip, r3, lsr #3
 8000f3e:	eb00 0c8c 	add.w	ip, r0, ip, lsl #2
        temp &= ~(0xFU << ((uint32_t)(position & 0x07U) * 4U)) ;
 8000f42:	f003 0b07 	and.w	fp, r3, #7
        temp = GPIOx->AFR[position >> 3];
 8000f46:	f8dc 6020 	ldr.w	r6, [ip, #32]
        temp &= ~(0xFU << ((uint32_t)(position & 0x07U) * 4U)) ;
 8000f4a:	ea4f 0b8b 	mov.w	fp, fp, lsl #2
 8000f4e:	270f      	movs	r7, #15
 8000f50:	fa07 f70b 	lsl.w	r7, r7, fp
 8000f54:	ea26 0707 	bic.w	r7, r6, r7
        temp |= ((uint32_t)(GPIO_Init->Alternate) << (((uint32_t)position & 0x07U) * 4U));
 8000f58:	690e      	ldr	r6, [r1, #16]
 8000f5a:	fa06 f60b 	lsl.w	r6, r6, fp
 8000f5e:	433e      	orrs	r6, r7
        GPIOx->AFR[position >> 3] = temp;
 8000f60:	f8cc 6020 	str.w	r6, [ip, #32]
      temp = GPIOx->MODER;
 8000f64:	f8d0 b000 	ldr.w	fp, [r0]
      temp &= ~(GPIO_MODER_MODER0 << (position * 2U));
 8000f68:	ea4f 0c43 	mov.w	ip, r3, lsl #1
 8000f6c:	2603      	movs	r6, #3
 8000f6e:	fa06 f70c 	lsl.w	r7, r6, ip
 8000f72:	ea2b 0b07 	bic.w	fp, fp, r7
 8000f76:	43fe      	mvns	r6, r7
      temp |= ((GPIO_Init->Mode & GPIO_MODE) << (position * 2U));
 8000f78:	f005 0703 	and.w	r7, r5, #3
 8000f7c:	fa07 f70c 	lsl.w	r7, r7, ip
      if((GPIO_Init->Mode == GPIO_MODE_OUTPUT_PP) || (GPIO_Init->Mode == GPIO_MODE_AF_PP) ||
 8000f80:	f10e 3eff 	add.w	lr, lr, #4294967295
      temp |= ((GPIO_Init->Mode & GPIO_MODE) << (position * 2U));
 8000f84:	ea47 070b 	orr.w	r7, r7, fp
      if((GPIO_Init->Mode == GPIO_MODE_OUTPUT_PP) || (GPIO_Init->Mode == GPIO_MODE_AF_PP) ||
 8000f88:	f1be 0f01 	cmp.w	lr, #1
      GPIOx->MODER = temp;
 8000f8c:	6007      	str	r7, [r0, #0]
      if((GPIO_Init->Mode == GPIO_MODE_OUTPUT_PP) || (GPIO_Init->Mode == GPIO_MODE_AF_PP) ||
 8000f8e:	d811      	bhi.n	8000fb4 <HAL_GPIO_Init+0xb0>
        temp = GPIOx->OSPEEDR;
 8000f90:	6887      	ldr	r7, [r0, #8]
        temp &= ~(GPIO_OSPEEDER_OSPEEDR0 << (position * 2U));
 8000f92:	ea06 0e07 	and.w	lr, r6, r7
        temp |= (GPIO_Init->Speed << (position * 2U));
 8000f96:	68cf      	ldr	r7, [r1, #12]
 8000f98:	fa07 f70c 	lsl.w	r7, r7, ip
 8000f9c:	ea47 070e 	orr.w	r7, r7, lr
        GPIOx->OSPEEDR = temp;
 8000fa0:	6087      	str	r7, [r0, #8]
        temp = GPIOx->OTYPER;
 8000fa2:	6847      	ldr	r7, [r0, #4]
        temp &= ~(GPIO_OTYPER_OT_0 << position) ;
 8000fa4:	ea27 0a0a 	bic.w	sl, r7, sl
        temp |= (((GPIO_Init->Mode & GPIO_OUTPUT_TYPE) >> 4U) << position);
 8000fa8:	f3c5 1700 	ubfx	r7, r5, #4, #1
 8000fac:	409f      	lsls	r7, r3
 8000fae:	ea47 070a 	orr.w	r7, r7, sl
        GPIOx->OTYPER = temp;
 8000fb2:	6047      	str	r7, [r0, #4]
      temp = GPIOx->PUPDR;
 8000fb4:	68c7      	ldr	r7, [r0, #12]
      temp &= ~(GPIO_PUPDR_PUPDR0 << (position * 2U));
 8000fb6:	4037      	ands	r7, r6
      temp |= ((GPIO_Init->Pull) << (position * 2U));
 8000fb8:	688e      	ldr	r6, [r1, #8]
 8000fba:	fa06 f60c 	lsl.w	r6, r6, ip
 8000fbe:	433e      	orrs	r6, r7
      GPIOx->PUPDR = temp;
 8000fc0:	60c6      	str	r6, [r0, #12]
      if((GPIO_Init->Mode & EXTI_MODE) == EXTI_MODE)
 8000fc2:	00ee      	lsls	r6, r5, #3
 8000fc4:	d551      	bpl.n	800106a <HAL_GPIO_Init+0x166>
        __HAL_RCC_SYSCFG_CLK_ENABLE();
 8000fc6:	f8d8 6018 	ldr.w	r6, [r8, #24]
 8000fca:	f046 0601 	orr.w	r6, r6, #1
 8000fce:	f8c8 6018 	str.w	r6, [r8, #24]
 8000fd2:	f8d8 6018 	ldr.w	r6, [r8, #24]
 8000fd6:	f023 0703 	bic.w	r7, r3, #3
 8000fda:	f107 4780 	add.w	r7, r7, #1073741824	; 0x40000000
 8000fde:	f006 0601 	and.w	r6, r6, #1
 8000fe2:	f507 3780 	add.w	r7, r7, #65536	; 0x10000
 8000fe6:	9601      	str	r6, [sp, #4]
        temp &= ~((0x0FU) << (4U * (position & 0x03U)));
 8000fe8:	f003 0e03 	and.w	lr, r3, #3
        __HAL_RCC_SYSCFG_CLK_ENABLE();
 8000fec:	9e01      	ldr	r6, [sp, #4]
        temp = SYSCFG->EXTICR[position >> 2];
 8000fee:	68be      	ldr	r6, [r7, #8]
        temp &= ~((0x0FU) << (4U * (position & 0x03U)));
 8000ff0:	ea4f 0e8e 	mov.w	lr, lr, lsl #2
 8000ff4:	f04f 0c0f 	mov.w	ip, #15
 8000ff8:	fa0c fc0e 	lsl.w	ip, ip, lr
        temp |= (GPIO_GET_INDEX(GPIOx) << (4U * (position & 0x03U)));
 8000ffc:	f1b0 4f90 	cmp.w	r0, #1207959552	; 0x48000000
        temp &= ~((0x0FU) << (4U * (position & 0x03U)));
 8001000:	ea26 0c0c 	bic.w	ip, r6, ip
        temp |= (GPIO_GET_INDEX(GPIOx) << (4U * (position & 0x03U)));
 8001004:	d033      	beq.n	800106e <HAL_GPIO_Init+0x16a>
 8001006:	4e20      	ldr	r6, [pc, #128]	; (8001088 <HAL_GPIO_Init+0x184>)
 8001008:	42b0      	cmp	r0, r6
 800100a:	d032      	beq.n	8001072 <HAL_GPIO_Init+0x16e>
 800100c:	f506 6680 	add.w	r6, r6, #1024	; 0x400
 8001010:	42b0      	cmp	r0, r6
 8001012:	d030      	beq.n	8001076 <HAL_GPIO_Init+0x172>
 8001014:	f506 6680 	add.w	r6, r6, #1024	; 0x400
 8001018:	42b0      	cmp	r0, r6
 800101a:	d02e      	beq.n	800107a <HAL_GPIO_Init+0x176>
 800101c:	f506 6680 	add.w	r6, r6, #1024	; 0x400
 8001020:	42b0      	cmp	r0, r6
 8001022:	bf0c      	ite	eq
 8001024:	2604      	moveq	r6, #4
 8001026:	2605      	movne	r6, #5
 8001028:	fa06 f60e 	lsl.w	r6, r6, lr
 800102c:	ea46 060c 	orr.w	r6, r6, ip
        SYSCFG->EXTICR[position >> 2] = temp;
 8001030:	60be      	str	r6, [r7, #8]
        temp = EXTI->IMR;
 8001032:	6826      	ldr	r6, [r4, #0]
        temp &= ~((uint32_t)iocurrent);
 8001034:	43d7      	mvns	r7, r2
        if((GPIO_Init->Mode & GPIO_MODE_IT) == GPIO_MODE_IT)
 8001036:	f415 3f80 	tst.w	r5, #65536	; 0x10000
        temp &= ~((uint32_t)iocurrent);
 800103a:	bf0c      	ite	eq
 800103c:	403e      	andeq	r6, r7
          temp |= iocurrent;
 800103e:	4316      	orrne	r6, r2
        EXTI->IMR = temp;
 8001040:	6026      	str	r6, [r4, #0]
        temp = EXTI->EMR;
 8001042:	6866      	ldr	r6, [r4, #4]
        if((GPIO_Init->Mode & GPIO_MODE_EVT) == GPIO_MODE_EVT)
 8001044:	f415 3f00 	tst.w	r5, #131072	; 0x20000
        temp &= ~((uint32_t)iocurrent);
 8001048:	bf0c      	ite	eq
 800104a:	403e      	andeq	r6, r7
          temp |= iocurrent;
 800104c:	4316      	orrne	r6, r2
        EXTI->EMR = temp;
 800104e:	6066      	str	r6, [r4, #4]
        temp = EXTI->RTSR;
 8001050:	68a6      	ldr	r6, [r4, #8]
        if((GPIO_Init->Mode & RISING_EDGE) == RISING_EDGE)
 8001052:	f415 1f80 	tst.w	r5, #1048576	; 0x100000
        temp &= ~((uint32_t)iocurrent);
 8001056:	bf0c      	ite	eq
 8001058:	403e      	andeq	r6, r7
          temp |= iocurrent;
 800105a:	4316      	orrne	r6, r2
        EXTI->RTSR = temp;
 800105c:	60a6      	str	r6, [r4, #8]
        temp = EXTI->FTSR;
 800105e:	68e6      	ldr	r6, [r4, #12]
        if((GPIO_Init->Mode & FALLING_EDGE) == FALLING_EDGE)
 8001060:	02ad      	lsls	r5, r5, #10
        temp &= ~((uint32_t)iocurrent);
 8001062:	bf54      	ite	pl
 8001064:	403e      	andpl	r6, r7
          temp |= iocurrent;
 8001066:	4316      	orrmi	r6, r2
        EXTI->FTSR = temp;
 8001068:	60e6      	str	r6, [r4, #12]
    position++;
 800106a:	3301      	adds	r3, #1
 800106c:	e752      	b.n	8000f14 <HAL_GPIO_Init+0x10>
        temp |= (GPIO_GET_INDEX(GPIOx) << (4U * (position & 0x03U)));
 800106e:	2600      	movs	r6, #0
 8001070:	e7da      	b.n	8001028 <HAL_GPIO_Init+0x124>
 8001072:	2601      	movs	r6, #1
 8001074:	e7d8      	b.n	8001028 <HAL_GPIO_Init+0x124>
 8001076:	2602      	movs	r6, #2
 8001078:	e7d6      	b.n	8001028 <HAL_GPIO_Init+0x124>
 800107a:	2603      	movs	r6, #3
 800107c:	e7d4      	b.n	8001028 <HAL_GPIO_Init+0x124>
 800107e:	bf00      	nop
 8001080:	40021000 	.word	0x40021000
 8001084:	40010400 	.word	0x40010400
 8001088:	48000400 	.word	0x48000400

0800108c <HAL_GPIO_WritePin>:
{
  /* Check the parameters */
  assert_param(IS_GPIO_PIN(GPIO_Pin));
  assert_param(IS_GPIO_PIN_ACTION(PinState));

  if(PinState != GPIO_PIN_RESET)
 800108c:	b10a      	cbz	r2, 8001092 <HAL_GPIO_WritePin+0x6>
  {
    GPIOx->BSRR = (uint32_t)GPIO_Pin;
 800108e:	6181      	str	r1, [r0, #24]
 8001090:	4770      	bx	lr
  }
  else
  {
    GPIOx->BRR = (uint32_t)GPIO_Pin;
 8001092:	6281      	str	r1, [r0, #40]	; 0x28
  }
}
 8001094:	4770      	bx	lr
 8001096:	0000      	movs	r0, r0

08001098 <UART_SetConfig>:
   *  set the M bits according to huart->Init.WordLength value
   *  set PCE and PS bits according to huart->Init.Parity value
   *  set TE and RE bits according to huart->Init.Mode value
   *  set OVER8 bit according to huart->Init.OverSampling value */
  tmpreg = (uint32_t)huart->Init.WordLength | huart->Init.Parity | huart->Init.Mode | huart->Init.OverSampling ;
  MODIFY_REG(huart->Instance->CR1, UART_CR1_FIELDS, tmpreg);
 8001098:	6802      	ldr	r2, [r0, #0]
  tmpreg = (uint32_t)huart->Init.WordLength | huart->Init.Parity | huart->Init.Mode | huart->Init.OverSampling ;
 800109a:	6881      	ldr	r1, [r0, #8]
 800109c:	69c3      	ldr	r3, [r0, #28]
{
 800109e:	b530      	push	{r4, r5, lr}
  tmpreg = (uint32_t)huart->Init.WordLength | huart->Init.Parity | huart->Init.Mode | huart->Init.OverSampling ;
 80010a0:	6905      	ldr	r5, [r0, #16]
  MODIFY_REG(huart->Instance->CR1, UART_CR1_FIELDS, tmpreg);
 80010a2:	6814      	ldr	r4, [r2, #0]
  tmpreg = (uint32_t)huart->Init.WordLength | huart->Init.Parity | huart->Init.Mode | huart->Init.OverSampling ;
 80010a4:	4329      	orrs	r1, r5
 80010a6:	6945      	ldr	r5, [r0, #20]
  MODIFY_REG(huart->Instance->CR1, UART_CR1_FIELDS, tmpreg);
 80010a8:	f424 4416 	bic.w	r4, r4, #38400	; 0x9600
  tmpreg = (uint32_t)huart->Init.WordLength | huart->Init.Parity | huart->Init.Mode | huart->Init.OverSampling ;
 80010ac:	4329      	orrs	r1, r5
  MODIFY_REG(huart->Instance->CR1, UART_CR1_FIELDS, tmpreg);
 80010ae:	f024 040c 	bic.w	r4, r4, #12
  tmpreg = (uint32_t)huart->Init.WordLength | huart->Init.Parity | huart->Init.Mode | huart->Init.OverSampling ;
 80010b2:	4319      	orrs	r1, r3
  MODIFY_REG(huart->Instance->CR1, UART_CR1_FIELDS, tmpreg);
 80010b4:	4321      	orrs	r1, r4
 80010b6:	6011      	str	r1, [r2, #0]

  /*-------------------------- USART CR2 Configuration -----------------------*/
  /* Configure the UART Stop Bits: Set STOP[13:12] bits according
   * to huart->Init.StopBits value */
  MODIFY_REG(huart->Instance->CR2, USART_CR2_STOP, huart->Init.StopBits);
 80010b8:	6851      	ldr	r1, [r2, #4]
 80010ba:	68c4      	ldr	r4, [r0, #12]
  /* Configure
   * - UART HardWare Flow Control: set CTSE and RTSE bits according
   *   to huart->Init.HwFlowCtl value
   * - one-bit sampling method versus three samples' majority rule according
   *   to huart->Init.OneBitSampling */
  tmpreg = (uint32_t)huart->Init.HwFlowCtl | huart->Init.OneBitSampling ;
 80010bc:	6a05      	ldr	r5, [r0, #32]
  MODIFY_REG(huart->Instance->CR2, USART_CR2_STOP, huart->Init.StopBits);
 80010be:	f421 5140 	bic.w	r1, r1, #12288	; 0x3000
 80010c2:	4321      	orrs	r1, r4
 80010c4:	6051      	str	r1, [r2, #4]
  MODIFY_REG(huart->Instance->CR3, (USART_CR3_RTSE | USART_CR3_CTSE | USART_CR3_ONEBIT), tmpreg);
 80010c6:	6894      	ldr	r4, [r2, #8]
  tmpreg = (uint32_t)huart->Init.HwFlowCtl | huart->Init.OneBitSampling ;
 80010c8:	6981      	ldr	r1, [r0, #24]
  MODIFY_REG(huart->Instance->CR3, (USART_CR3_RTSE | USART_CR3_CTSE | USART_CR3_ONEBIT), tmpreg);
 80010ca:	f424 6430 	bic.w	r4, r4, #2816	; 0xb00
  tmpreg = (uint32_t)huart->Init.HwFlowCtl | huart->Init.OneBitSampling ;
 80010ce:	4329      	orrs	r1, r5
  MODIFY_REG(huart->Instance->CR3, (USART_CR3_RTSE | USART_CR3_CTSE | USART_CR3_ONEBIT), tmpreg);
 80010d0:	4321      	orrs	r1, r4
 80010d2:	6091      	str	r1, [r2, #8]

  /*-------------------------- USART BRR Configuration -----------------------*/
  UART_GETCLOCKSOURCE(huart, clocksource);
 80010d4:	4962      	ldr	r1, [pc, #392]	; (8001260 <UART_SetConfig+0x1c8>)
 80010d6:	428a      	cmp	r2, r1
 80010d8:	d116      	bne.n	8001108 <UART_SetConfig+0x70>
 80010da:	f501 4158 	add.w	r1, r1, #55296	; 0xd800
 80010de:	6b09      	ldr	r1, [r1, #48]	; 0x30
 80010e0:	f001 0103 	and.w	r1, r1, #3
 80010e4:	3901      	subs	r1, #1
 80010e6:	2902      	cmp	r1, #2
 80010e8:	f200 80b2 	bhi.w	8001250 <UART_SetConfig+0x1b8>
 80010ec:	4c5d      	ldr	r4, [pc, #372]	; (8001264 <UART_SetConfig+0x1cc>)

  /* Check UART Over Sampling to set Baud Rate Register */
  if (huart->Init.OverSampling == UART_OVERSAMPLING_8)
 80010ee:	f5b3 4f00 	cmp.w	r3, #32768	; 0x8000
 80010f2:	5c61      	ldrb	r1, [r4, r1]
 80010f4:	d177      	bne.n	80011e6 <UART_SetConfig+0x14e>
  {
    switch (clocksource)
 80010f6:	2908      	cmp	r1, #8
 80010f8:	d872      	bhi.n	80011e0 <UART_SetConfig+0x148>
 80010fa:	e8df f001 	tbb	[pc, r1]
 80010fe:	acac      	.short	0xacac
 8001100:	71ac7124 	.word	0x71ac7124
 8001104:	7171      	.short	0x7171
 8001106:	a4          	.byte	0xa4
 8001107:	00          	.byte	0x00
  UART_GETCLOCKSOURCE(huart, clocksource);
 8001108:	4957      	ldr	r1, [pc, #348]	; (8001268 <UART_SetConfig+0x1d0>)
 800110a:	428a      	cmp	r2, r1
 800110c:	d12c      	bne.n	8001168 <UART_SetConfig+0xd0>
 800110e:	f501 31e6 	add.w	r1, r1, #117760	; 0x1cc00
 8001112:	6b09      	ldr	r1, [r1, #48]	; 0x30
 8001114:	f401 3140 	and.w	r1, r1, #196608	; 0x30000
 8001118:	f5b1 3f00 	cmp.w	r1, #131072	; 0x20000
 800111c:	f000 8090 	beq.w	8001240 <UART_SetConfig+0x1a8>
 8001120:	d80b      	bhi.n	800113a <UART_SetConfig+0xa2>
 8001122:	2900      	cmp	r1, #0
 8001124:	f000 8094 	beq.w	8001250 <UART_SetConfig+0x1b8>
 8001128:	f5b1 3f80 	cmp.w	r1, #65536	; 0x10000
 800112c:	f000 8090 	beq.w	8001250 <UART_SetConfig+0x1b8>
  if (huart->Init.OverSampling == UART_OVERSAMPLING_8)
 8001130:	f5b3 4f00 	cmp.w	r3, #32768	; 0x8000
 8001134:	d054      	beq.n	80011e0 <UART_SetConfig+0x148>
      case UART_CLOCKSOURCE_LSE:
        huart->Instance->BRR = (uint16_t)(UART_DIV_SAMPLING16(LSE_VALUE, huart->Init.BaudRate));
        break;
      case UART_CLOCKSOURCE_UNDEFINED:
      default:
        ret = HAL_ERROR;
 8001136:	2001      	movs	r0, #1
        break;
    }
  }

  return ret;
 8001138:	e015      	b.n	8001166 <UART_SetConfig+0xce>
  UART_GETCLOCKSOURCE(huart, clocksource);
 800113a:	f5b1 3f40 	cmp.w	r1, #196608	; 0x30000
 800113e:	d1f7      	bne.n	8001130 <UART_SetConfig+0x98>
  if (huart->Init.OverSampling == UART_OVERSAMPLING_8)
 8001140:	f5b3 4f00 	cmp.w	r3, #32768	; 0x8000
 8001144:	d166      	bne.n	8001214 <UART_SetConfig+0x17c>
        usartdiv = (uint16_t)(UART_DIV_SAMPLING8(HSI_VALUE, huart->Init.BaudRate));
 8001146:	6841      	ldr	r1, [r0, #4]
 8001148:	084b      	lsrs	r3, r1, #1
 800114a:	f103 73f4 	add.w	r3, r3, #31981568	; 0x1e80000
 800114e:	f503 4390 	add.w	r3, r3, #18432	; 0x4800
        usartdiv = (uint16_t)(UART_DIV_SAMPLING8(LSE_VALUE, huart->Init.BaudRate));
 8001152:	fbb3 f3f1 	udiv	r3, r3, r1
  HAL_StatusTypeDef ret               = HAL_OK;
 8001156:	2000      	movs	r0, #0
        usartdiv = (uint16_t)(UART_DIV_SAMPLING8(LSE_VALUE, huart->Init.BaudRate));
 8001158:	b29b      	uxth	r3, r3
    brrtemp = usartdiv & 0xFFF0U;
 800115a:	f023 010f 	bic.w	r1, r3, #15
    brrtemp |= (uint16_t)((usartdiv & (uint16_t)0x000FU) >> 1U);
 800115e:	f3c3 0342 	ubfx	r3, r3, #1, #3
    huart->Instance->BRR = brrtemp;
 8001162:	430b      	orrs	r3, r1
 8001164:	60d3      	str	r3, [r2, #12]

}
 8001166:	bd30      	pop	{r4, r5, pc}
  UART_GETCLOCKSOURCE(huart, clocksource);
 8001168:	4940      	ldr	r1, [pc, #256]	; (800126c <UART_SetConfig+0x1d4>)
 800116a:	428a      	cmp	r2, r1
 800116c:	d110      	bne.n	8001190 <UART_SetConfig+0xf8>
 800116e:	f501 31e4 	add.w	r1, r1, #116736	; 0x1c800
 8001172:	6b09      	ldr	r1, [r1, #48]	; 0x30
 8001174:	f401 2140 	and.w	r1, r1, #786432	; 0xc0000
 8001178:	f5b1 2f00 	cmp.w	r1, #524288	; 0x80000
 800117c:	d060      	beq.n	8001240 <UART_SetConfig+0x1a8>
 800117e:	d804      	bhi.n	800118a <UART_SetConfig+0xf2>
 8001180:	2900      	cmp	r1, #0
 8001182:	d065      	beq.n	8001250 <UART_SetConfig+0x1b8>
 8001184:	f5b1 2f80 	cmp.w	r1, #262144	; 0x40000
 8001188:	e7d0      	b.n	800112c <UART_SetConfig+0x94>
 800118a:	f5b1 2f40 	cmp.w	r1, #786432	; 0xc0000
 800118e:	e7d6      	b.n	800113e <UART_SetConfig+0xa6>
 8001190:	4937      	ldr	r1, [pc, #220]	; (8001270 <UART_SetConfig+0x1d8>)
 8001192:	428a      	cmp	r2, r1
 8001194:	d110      	bne.n	80011b8 <UART_SetConfig+0x120>
 8001196:	f501 31e2 	add.w	r1, r1, #115712	; 0x1c400
 800119a:	6b09      	ldr	r1, [r1, #48]	; 0x30
 800119c:	f401 1140 	and.w	r1, r1, #3145728	; 0x300000
 80011a0:	f5b1 1f00 	cmp.w	r1, #2097152	; 0x200000
 80011a4:	d04c      	beq.n	8001240 <UART_SetConfig+0x1a8>
 80011a6:	d804      	bhi.n	80011b2 <UART_SetConfig+0x11a>
 80011a8:	2900      	cmp	r1, #0
 80011aa:	d051      	beq.n	8001250 <UART_SetConfig+0x1b8>
 80011ac:	f5b1 1f80 	cmp.w	r1, #1048576	; 0x100000
 80011b0:	e7bc      	b.n	800112c <UART_SetConfig+0x94>
 80011b2:	f5b1 1f40 	cmp.w	r1, #3145728	; 0x300000
 80011b6:	e7c2      	b.n	800113e <UART_SetConfig+0xa6>
 80011b8:	492e      	ldr	r1, [pc, #184]	; (8001274 <UART_SetConfig+0x1dc>)
 80011ba:	428a      	cmp	r2, r1
 80011bc:	d1b8      	bne.n	8001130 <UART_SetConfig+0x98>
 80011be:	f501 31e0 	add.w	r1, r1, #114688	; 0x1c000
 80011c2:	6b09      	ldr	r1, [r1, #48]	; 0x30
 80011c4:	f401 0140 	and.w	r1, r1, #12582912	; 0xc00000
 80011c8:	f5b1 0f00 	cmp.w	r1, #8388608	; 0x800000
 80011cc:	d038      	beq.n	8001240 <UART_SetConfig+0x1a8>
 80011ce:	d804      	bhi.n	80011da <UART_SetConfig+0x142>
 80011d0:	2900      	cmp	r1, #0
 80011d2:	d03d      	beq.n	8001250 <UART_SetConfig+0x1b8>
 80011d4:	f5b1 0f80 	cmp.w	r1, #4194304	; 0x400000
 80011d8:	e7a8      	b.n	800112c <UART_SetConfig+0x94>
 80011da:	f5b1 0f40 	cmp.w	r1, #12582912	; 0xc00000
 80011de:	e7ae      	b.n	800113e <UART_SetConfig+0xa6>
        ret = HAL_ERROR;
 80011e0:	2001      	movs	r0, #1
  uint16_t usartdiv                   = 0x0000U;
 80011e2:	2300      	movs	r3, #0
 80011e4:	e7b9      	b.n	800115a <UART_SetConfig+0xc2>
    switch (clocksource)
 80011e6:	2908      	cmp	r1, #8
 80011e8:	d8a5      	bhi.n	8001136 <UART_SetConfig+0x9e>
 80011ea:	a301      	add	r3, pc, #4	; (adr r3, 80011f0 <UART_SetConfig+0x158>)
 80011ec:	f853 f021 	ldr.w	pc, [r3, r1, lsl #2]
 80011f0:	0800122d 	.word	0x0800122d
 80011f4:	0800122d 	.word	0x0800122d
 80011f8:	08001215 	.word	0x08001215
 80011fc:	08001137 	.word	0x08001137
 8001200:	0800122d 	.word	0x0800122d
 8001204:	08001137 	.word	0x08001137
 8001208:	08001137 	.word	0x08001137
 800120c:	08001137 	.word	0x08001137
 8001210:	08001237 	.word	0x08001237
        huart->Instance->BRR = (uint16_t)(UART_DIV_SAMPLING16(HSI_VALUE, huart->Init.BaudRate));
 8001214:	6841      	ldr	r1, [r0, #4]
 8001216:	084b      	lsrs	r3, r1, #1
 8001218:	f503 0374 	add.w	r3, r3, #15990784	; 0xf40000
 800121c:	f503 5310 	add.w	r3, r3, #9216	; 0x2400
        huart->Instance->BRR = (uint16_t)(UART_DIV_SAMPLING16(LSE_VALUE, huart->Init.BaudRate));
 8001220:	fbb3 f3f1 	udiv	r3, r3, r1
 8001224:	b29b      	uxth	r3, r3
 8001226:	60d3      	str	r3, [r2, #12]
  HAL_StatusTypeDef ret               = HAL_OK;
 8001228:	2000      	movs	r0, #0
        break;
 800122a:	e79c      	b.n	8001166 <UART_SetConfig+0xce>
        huart->Instance->BRR = (uint16_t)(UART_DIV_SAMPLING16(HAL_RCC_GetSysClockFreq(), huart->Init.BaudRate));
 800122c:	6841      	ldr	r1, [r0, #4]
 800122e:	084b      	lsrs	r3, r1, #1
 8001230:	f503 03e1 	add.w	r3, r3, #7372800	; 0x708000
 8001234:	e7f4      	b.n	8001220 <UART_SetConfig+0x188>
        huart->Instance->BRR = (uint16_t)(UART_DIV_SAMPLING16(LSE_VALUE, huart->Init.BaudRate));
 8001236:	6841      	ldr	r1, [r0, #4]
 8001238:	084b      	lsrs	r3, r1, #1
 800123a:	f503 4300 	add.w	r3, r3, #32768	; 0x8000
 800123e:	e7ef      	b.n	8001220 <UART_SetConfig+0x188>
  if (huart->Init.OverSampling == UART_OVERSAMPLING_8)
 8001240:	f5b3 4f00 	cmp.w	r3, #32768	; 0x8000
 8001244:	d1f7      	bne.n	8001236 <UART_SetConfig+0x19e>
        usartdiv = (uint16_t)(UART_DIV_SAMPLING8(LSE_VALUE, huart->Init.BaudRate));
 8001246:	6841      	ldr	r1, [r0, #4]
 8001248:	084b      	lsrs	r3, r1, #1
 800124a:	f503 3380 	add.w	r3, r3, #65536	; 0x10000
 800124e:	e780      	b.n	8001152 <UART_SetConfig+0xba>
  if (huart->Init.OverSampling == UART_OVERSAMPLING_8)
 8001250:	f5b3 4f00 	cmp.w	r3, #32768	; 0x8000
 8001254:	d1ea      	bne.n	800122c <UART_SetConfig+0x194>
        usartdiv = (uint16_t)(UART_DIV_SAMPLING8(HAL_RCC_GetSysClockFreq(), huart->Init.BaudRate));
 8001256:	6841      	ldr	r1, [r0, #4]
 8001258:	084b      	lsrs	r3, r1, #1
 800125a:	f503 0361 	add.w	r3, r3, #14745600	; 0xe10000
 800125e:	e778      	b.n	8001152 <UART_SetConfig+0xba>
 8001260:	40013800 	.word	0x40013800
 8001264:	08001968 	.word	0x08001968
 8001268:	40004400 	.word	0x40004400
 800126c:	40004800 	.word	0x40004800
 8001270:	40004c00 	.word	0x40004c00
 8001274:	40005000 	.word	0x40005000

08001278 <UART_WaitOnFlagUntilTimeout>:
  * @param  Tickstart Tick start value
  * @param  Timeout Timeout duration
  * @retval HAL status
  */
HAL_StatusTypeDef UART_WaitOnFlagUntilTimeout(UART_HandleTypeDef *huart, uint32_t Flag, FlagStatus Status, uint32_t Tickstart, uint32_t Timeout)
{
 8001278:	b5f8      	push	{r3, r4, r5, r6, r7, lr}
 800127a:	9f06      	ldr	r7, [sp, #24]
 800127c:	4604      	mov	r4, r0
 800127e:	4615      	mov	r5, r2
 8001280:	461e      	mov	r6, r3
  /* Wait until flag is set */
  while((__HAL_UART_GET_FLAG(huart, Flag) ? SET : RESET) == Status)
 8001282:	6822      	ldr	r2, [r4, #0]
 8001284:	69d3      	ldr	r3, [r2, #28]
 8001286:	ea31 0303 	bics.w	r3, r1, r3
 800128a:	bf0c      	ite	eq
 800128c:	2301      	moveq	r3, #1
 800128e:	2300      	movne	r3, #0
 8001290:	42ab      	cmp	r3, r5
 8001292:	d001      	beq.n	8001298 <UART_WaitOnFlagUntilTimeout+0x20>
        __HAL_UNLOCK(huart);
        return HAL_TIMEOUT;
      }
    }
  }
  return HAL_OK;
 8001294:	2000      	movs	r0, #0
 8001296:	e014      	b.n	80012c2 <UART_WaitOnFlagUntilTimeout+0x4a>
    if(Timeout != HAL_MAX_DELAY)
 8001298:	1c7b      	adds	r3, r7, #1
 800129a:	d0f3      	beq.n	8001284 <UART_WaitOnFlagUntilTimeout+0xc>
      if((Timeout == 0U) || ((HAL_GetTick()-Tickstart) > Timeout))
 800129c:	b997      	cbnz	r7, 80012c4 <UART_WaitOnFlagUntilTimeout+0x4c>
        CLEAR_BIT(huart->Instance->CR1, (USART_CR1_RXNEIE | USART_CR1_PEIE | USART_CR1_TXEIE));
 800129e:	6823      	ldr	r3, [r4, #0]
 80012a0:	681a      	ldr	r2, [r3, #0]
 80012a2:	f422 72d0 	bic.w	r2, r2, #416	; 0x1a0
 80012a6:	601a      	str	r2, [r3, #0]
        CLEAR_BIT(huart->Instance->CR3, USART_CR3_EIE);
 80012a8:	689a      	ldr	r2, [r3, #8]
 80012aa:	f022 0201 	bic.w	r2, r2, #1
 80012ae:	609a      	str	r2, [r3, #8]
        huart->gState  = HAL_UART_STATE_READY;
 80012b0:	2320      	movs	r3, #32
 80012b2:	f884 3069 	strb.w	r3, [r4, #105]	; 0x69
        huart->RxState = HAL_UART_STATE_READY;
 80012b6:	f884 306a 	strb.w	r3, [r4, #106]	; 0x6a
        __HAL_UNLOCK(huart);
 80012ba:	2300      	movs	r3, #0
 80012bc:	f884 3068 	strb.w	r3, [r4, #104]	; 0x68
 80012c0:	2003      	movs	r0, #3
}
 80012c2:	bdf8      	pop	{r3, r4, r5, r6, r7, pc}
      if((Timeout == 0U) || ((HAL_GetTick()-Tickstart) > Timeout))
 80012c4:	f7ff fb02 	bl	80008cc <HAL_GetTick>
 80012c8:	1b80      	subs	r0, r0, r6
 80012ca:	42b8      	cmp	r0, r7
 80012cc:	d9d9      	bls.n	8001282 <UART_WaitOnFlagUntilTimeout+0xa>
 80012ce:	e7e6      	b.n	800129e <UART_WaitOnFlagUntilTimeout+0x26>

080012d0 <UART_CheckIdleState>:
{
 80012d0:	b537      	push	{r0, r1, r2, r4, r5, lr}
 80012d2:	4604      	mov	r4, r0
  huart->ErrorCode = HAL_UART_ERROR_NONE;
 80012d4:	2100      	movs	r1, #0
 80012d6:	66c1      	str	r1, [r0, #108]	; 0x6c
  tickstart = HAL_GetTick();
 80012d8:	f7ff faf8 	bl	80008cc <HAL_GetTick>
  if((huart->Instance->CR1 & USART_CR1_TE) == USART_CR1_TE)
 80012dc:	6823      	ldr	r3, [r4, #0]
 80012de:	681b      	ldr	r3, [r3, #0]
 80012e0:	071a      	lsls	r2, r3, #28
  tickstart = HAL_GetTick();
 80012e2:	4605      	mov	r5, r0
  if((huart->Instance->CR1 & USART_CR1_TE) == USART_CR1_TE)
 80012e4:	d417      	bmi.n	8001316 <UART_CheckIdleState+0x46>
  if((huart->Instance->CR1 & USART_CR1_RE) == USART_CR1_RE)
 80012e6:	6823      	ldr	r3, [r4, #0]
 80012e8:	681b      	ldr	r3, [r3, #0]
 80012ea:	075b      	lsls	r3, r3, #29
 80012ec:	d50a      	bpl.n	8001304 <UART_CheckIdleState+0x34>
    if(UART_WaitOnFlagUntilTimeout(huart, USART_ISR_REACK, RESET, tickstart, HAL_UART_TIMEOUT_VALUE) != HAL_OK)
 80012ee:	f06f 437e 	mvn.w	r3, #4261412864	; 0xfe000000
 80012f2:	9300      	str	r3, [sp, #0]
 80012f4:	2200      	movs	r2, #0
 80012f6:	462b      	mov	r3, r5
 80012f8:	f44f 0180 	mov.w	r1, #4194304	; 0x400000
 80012fc:	4620      	mov	r0, r4
 80012fe:	f7ff ffbb 	bl	8001278 <UART_WaitOnFlagUntilTimeout>
 8001302:	b9a0      	cbnz	r0, 800132e <UART_CheckIdleState+0x5e>
  huart->gState  = HAL_UART_STATE_READY;
 8001304:	2320      	movs	r3, #32
  __HAL_UNLOCK(huart);
 8001306:	2000      	movs	r0, #0
  huart->gState  = HAL_UART_STATE_READY;
 8001308:	f884 3069 	strb.w	r3, [r4, #105]	; 0x69
  __HAL_UNLOCK(huart);
 800130c:	f884 0068 	strb.w	r0, [r4, #104]	; 0x68
  huart->RxState = HAL_UART_STATE_READY;
 8001310:	f884 306a 	strb.w	r3, [r4, #106]	; 0x6a
  return HAL_OK;
 8001314:	e00c      	b.n	8001330 <UART_CheckIdleState+0x60>
    if(UART_WaitOnFlagUntilTimeout(huart, USART_ISR_TEACK, RESET, tickstart, HAL_UART_TIMEOUT_VALUE) != HAL_OK)
 8001316:	f06f 437e 	mvn.w	r3, #4261412864	; 0xfe000000
 800131a:	9300      	str	r3, [sp, #0]
 800131c:	460a      	mov	r2, r1
 800131e:	4603      	mov	r3, r0
 8001320:	f44f 1100 	mov.w	r1, #2097152	; 0x200000
 8001324:	4620      	mov	r0, r4
 8001326:	f7ff ffa7 	bl	8001278 <UART_WaitOnFlagUntilTimeout>
 800132a:	2800      	cmp	r0, #0
 800132c:	d0db      	beq.n	80012e6 <UART_CheckIdleState+0x16>
      return HAL_TIMEOUT;
 800132e:	2003      	movs	r0, #3
}
 8001330:	b003      	add	sp, #12
 8001332:	bd30      	pop	{r4, r5, pc}

08001334 <HAL_UART_Init>:
{
 8001334:	b510      	push	{r4, lr}
  if(huart == NULL)
 8001336:	4604      	mov	r4, r0
 8001338:	b328      	cbz	r0, 8001386 <HAL_UART_Init+0x52>
  if(huart->gState == HAL_UART_STATE_RESET)
 800133a:	f890 3069 	ldrb.w	r3, [r0, #105]	; 0x69
 800133e:	f003 02ff 	and.w	r2, r3, #255	; 0xff
 8001342:	b90b      	cbnz	r3, 8001348 <HAL_UART_Init+0x14>
    huart->Lock = HAL_UNLOCKED;
 8001344:	f880 2068 	strb.w	r2, [r0, #104]	; 0x68
  __HAL_UART_DISABLE(huart);
 8001348:	6822      	ldr	r2, [r4, #0]
  huart->gState = HAL_UART_STATE_BUSY;
 800134a:	2324      	movs	r3, #36	; 0x24
 800134c:	f884 3069 	strb.w	r3, [r4, #105]	; 0x69
  __HAL_UART_DISABLE(huart);
 8001350:	6813      	ldr	r3, [r2, #0]
 8001352:	f023 0301 	bic.w	r3, r3, #1
 8001356:	6013      	str	r3, [r2, #0]
  if (UART_SetConfig(huart) == HAL_ERROR)
 8001358:	4620      	mov	r0, r4
 800135a:	f7ff fe9d 	bl	8001098 <UART_SetConfig>
 800135e:	2801      	cmp	r0, #1
 8001360:	d011      	beq.n	8001386 <HAL_UART_Init+0x52>
  CLEAR_BIT(huart->Instance->CR2, (USART_CR2_LINEN | USART_CR2_CLKEN));
 8001362:	6823      	ldr	r3, [r4, #0]
 8001364:	685a      	ldr	r2, [r3, #4]
 8001366:	f422 4290 	bic.w	r2, r2, #18432	; 0x4800
 800136a:	605a      	str	r2, [r3, #4]
  CLEAR_BIT(huart->Instance->CR3, (USART_CR3_SCEN | USART_CR3_HDSEL | USART_CR3_IREN));
 800136c:	689a      	ldr	r2, [r3, #8]
 800136e:	f022 022a 	bic.w	r2, r2, #42	; 0x2a
 8001372:	609a      	str	r2, [r3, #8]
  __HAL_UART_ENABLE(huart);
 8001374:	681a      	ldr	r2, [r3, #0]
 8001376:	f042 0201 	orr.w	r2, r2, #1
  return UART_CheckIdleState(huart);
 800137a:	4620      	mov	r0, r4
  __HAL_UART_ENABLE(huart);
 800137c:	601a      	str	r2, [r3, #0]
}
 800137e:	e8bd 4010 	ldmia.w	sp!, {r4, lr}
  return UART_CheckIdleState(huart);
 8001382:	f7ff bfa5 	b.w	80012d0 <UART_CheckIdleState>
}
 8001386:	2001      	movs	r0, #1
 8001388:	bd10      	pop	{r4, pc}

0800138a <HAL_UART_Transmit>:
  * @param Size: Amount of data to be sent.
  * @param Timeout: Timeout duration.
  * @retval HAL status
  */
HAL_StatusTypeDef HAL_UART_Transmit(UART_HandleTypeDef *huart, uint8_t *pData, uint16_t Size, uint32_t Timeout)
{
 800138a:	b5f7      	push	{r0, r1, r2, r4, r5, r6, r7, lr}
 800138c:	461e      	mov	r6, r3
  uint16_t* tmp;
  uint32_t tickstart = 0U;

  /* Check that a Tx process is not already ongoing */
  if(huart->gState == HAL_UART_STATE_READY)
 800138e:	f890 3069 	ldrb.w	r3, [r0, #105]	; 0x69
 8001392:	2b20      	cmp	r3, #32
{
 8001394:	460d      	mov	r5, r1
 8001396:	4604      	mov	r4, r0
 8001398:	4611      	mov	r1, r2
  if(huart->gState == HAL_UART_STATE_READY)
 800139a:	d14a      	bne.n	8001432 <HAL_UART_Transmit+0xa8>
  {
    if((pData == NULL ) || (Size == 0U))
 800139c:	2d00      	cmp	r5, #0
 800139e:	d046      	beq.n	800142e <HAL_UART_Transmit+0xa4>
 80013a0:	2a00      	cmp	r2, #0
 80013a2:	d044      	beq.n	800142e <HAL_UART_Transmit+0xa4>
    {
      return  HAL_ERROR;
    }

    /* Process Locked */
    __HAL_LOCK(huart);
 80013a4:	f890 3068 	ldrb.w	r3, [r0, #104]	; 0x68
 80013a8:	2b01      	cmp	r3, #1
 80013aa:	d042      	beq.n	8001432 <HAL_UART_Transmit+0xa8>
 80013ac:	2301      	movs	r3, #1
 80013ae:	f880 3068 	strb.w	r3, [r0, #104]	; 0x68

    huart->ErrorCode = HAL_UART_ERROR_NONE;
 80013b2:	2300      	movs	r3, #0
 80013b4:	66c3      	str	r3, [r0, #108]	; 0x6c
    huart->gState = HAL_UART_STATE_BUSY_TX;
 80013b6:	2321      	movs	r3, #33	; 0x21
 80013b8:	f880 3069 	strb.w	r3, [r0, #105]	; 0x69

    /* Init tickstart for timeout managment*/
    tickstart = HAL_GetTick();
 80013bc:	f7ff fa86 	bl	80008cc <HAL_GetTick>

    huart->TxXferSize = Size;
 80013c0:	f8a4 1050 	strh.w	r1, [r4, #80]	; 0x50
    tickstart = HAL_GetTick();
 80013c4:	4607      	mov	r7, r0
    huart->TxXferCount = Size;
 80013c6:	f8a4 1052 	strh.w	r1, [r4, #82]	; 0x52
    while(huart->TxXferCount > 0U)
 80013ca:	f8b4 2052 	ldrh.w	r2, [r4, #82]	; 0x52
 80013ce:	b292      	uxth	r2, r2
 80013d0:	b962      	cbnz	r2, 80013ec <HAL_UART_Transmit+0x62>
      else
      {
        huart->Instance->TDR = (*pData++ & (uint8_t)0xFFU);
      }
    }
    if(UART_WaitOnFlagUntilTimeout(huart, UART_FLAG_TC, RESET, tickstart, Timeout) != HAL_OK)
 80013d2:	9600      	str	r6, [sp, #0]
 80013d4:	463b      	mov	r3, r7
 80013d6:	2140      	movs	r1, #64	; 0x40
 80013d8:	4620      	mov	r0, r4
 80013da:	f7ff ff4d 	bl	8001278 <UART_WaitOnFlagUntilTimeout>
 80013de:	b998      	cbnz	r0, 8001408 <HAL_UART_Transmit+0x7e>
    {
      return HAL_TIMEOUT;
    }

    /* At end of Tx process, restore huart->gState to Ready */
    huart->gState = HAL_UART_STATE_READY;
 80013e0:	2320      	movs	r3, #32
 80013e2:	f884 3069 	strb.w	r3, [r4, #105]	; 0x69

    /* Process Unlocked */
    __HAL_UNLOCK(huart);
 80013e6:	f884 0068 	strb.w	r0, [r4, #104]	; 0x68

    return HAL_OK;
 80013ea:	e00e      	b.n	800140a <HAL_UART_Transmit+0x80>
      huart->TxXferCount--;
 80013ec:	f8b4 2052 	ldrh.w	r2, [r4, #82]	; 0x52
      if(UART_WaitOnFlagUntilTimeout(huart, UART_FLAG_TXE, RESET, tickstart, Timeout) != HAL_OK)
 80013f0:	9600      	str	r6, [sp, #0]
      huart->TxXferCount--;
 80013f2:	3a01      	subs	r2, #1
 80013f4:	b292      	uxth	r2, r2
 80013f6:	f8a4 2052 	strh.w	r2, [r4, #82]	; 0x52
      if(UART_WaitOnFlagUntilTimeout(huart, UART_FLAG_TXE, RESET, tickstart, Timeout) != HAL_OK)
 80013fa:	463b      	mov	r3, r7
 80013fc:	2200      	movs	r2, #0
 80013fe:	2180      	movs	r1, #128	; 0x80
 8001400:	4620      	mov	r0, r4
 8001402:	f7ff ff39 	bl	8001278 <UART_WaitOnFlagUntilTimeout>
 8001406:	b110      	cbz	r0, 800140e <HAL_UART_Transmit+0x84>
        return HAL_TIMEOUT;
 8001408:	2003      	movs	r0, #3
  }
  else
  {
    return HAL_BUSY;
  }
}
 800140a:	b003      	add	sp, #12
 800140c:	bdf0      	pop	{r4, r5, r6, r7, pc}
      if ((huart->Init.WordLength == UART_WORDLENGTH_9B) && (huart->Init.Parity == UART_PARITY_NONE))
 800140e:	68a3      	ldr	r3, [r4, #8]
        huart->Instance->TDR = (*tmp & (uint16_t)0x01FFU);
 8001410:	6822      	ldr	r2, [r4, #0]
      if ((huart->Init.WordLength == UART_WORDLENGTH_9B) && (huart->Init.Parity == UART_PARITY_NONE))
 8001412:	f5b3 5f80 	cmp.w	r3, #4096	; 0x1000
 8001416:	d107      	bne.n	8001428 <HAL_UART_Transmit+0x9e>
 8001418:	6923      	ldr	r3, [r4, #16]
 800141a:	b92b      	cbnz	r3, 8001428 <HAL_UART_Transmit+0x9e>
        huart->Instance->TDR = (*tmp & (uint16_t)0x01FFU);
 800141c:	f835 3b02 	ldrh.w	r3, [r5], #2
 8001420:	f3c3 0308 	ubfx	r3, r3, #0, #9
        huart->Instance->TDR = (*pData++ & (uint8_t)0xFFU);
 8001424:	8513      	strh	r3, [r2, #40]	; 0x28
 8001426:	e7d0      	b.n	80013ca <HAL_UART_Transmit+0x40>
 8001428:	f815 3b01 	ldrb.w	r3, [r5], #1
 800142c:	e7fa      	b.n	8001424 <HAL_UART_Transmit+0x9a>
      return  HAL_ERROR;
 800142e:	2001      	movs	r0, #1
 8001430:	e7eb      	b.n	800140a <HAL_UART_Transmit+0x80>
    return HAL_BUSY;
 8001432:	2002      	movs	r0, #2
 8001434:	e7e9      	b.n	800140a <HAL_UART_Transmit+0x80>

08001436 <HAL_UART_Receive>:
  * @param Size: amount of data to be received.
  * @param Timeout: Timeout duration.
  * @retval HAL status
  */
HAL_StatusTypeDef HAL_UART_Receive(UART_HandleTypeDef *huart, uint8_t *pData, uint16_t Size, uint32_t Timeout)
{
 8001436:	e92d 41f3 	stmdb	sp!, {r0, r1, r4, r5, r6, r7, r8, lr}
 800143a:	461e      	mov	r6, r3
  uint16_t* tmp;
  uint16_t uhMask;
  uint32_t tickstart = 0U;

  /* Check that a Rx process is not already ongoing */
  if(huart->RxState == HAL_UART_STATE_READY)
 800143c:	f890 306a 	ldrb.w	r3, [r0, #106]	; 0x6a
 8001440:	2b20      	cmp	r3, #32
{
 8001442:	460d      	mov	r5, r1
 8001444:	4604      	mov	r4, r0
 8001446:	4611      	mov	r1, r2
  if(huart->RxState == HAL_UART_STATE_READY)
 8001448:	d15c      	bne.n	8001504 <HAL_UART_Receive+0xce>
  {
    if((pData == NULL ) || (Size == 0U))
 800144a:	2d00      	cmp	r5, #0
 800144c:	d058      	beq.n	8001500 <HAL_UART_Receive+0xca>
 800144e:	2a00      	cmp	r2, #0
 8001450:	d056      	beq.n	8001500 <HAL_UART_Receive+0xca>
    {
      return  HAL_ERROR;
    }

    /* Process Locked */
    __HAL_LOCK(huart);
 8001452:	f890 3068 	ldrb.w	r3, [r0, #104]	; 0x68
 8001456:	2b01      	cmp	r3, #1
 8001458:	d054      	beq.n	8001504 <HAL_UART_Receive+0xce>
 800145a:	2301      	movs	r3, #1
 800145c:	f880 3068 	strb.w	r3, [r0, #104]	; 0x68

    huart->Instance->ICR = 0xFFFFFFFF;
 8001460:	6803      	ldr	r3, [r0, #0]
 8001462:	f04f 32ff 	mov.w	r2, #4294967295
 8001466:	621a      	str	r2, [r3, #32]
    huart->ErrorCode = HAL_UART_ERROR_NONE;
 8001468:	2300      	movs	r3, #0
 800146a:	66c3      	str	r3, [r0, #108]	; 0x6c
    huart->RxState = HAL_UART_STATE_BUSY_RX;
 800146c:	2322      	movs	r3, #34	; 0x22
 800146e:	f880 306a 	strb.w	r3, [r0, #106]	; 0x6a

    /* Init tickstart for timeout managment*/
    tickstart = HAL_GetTick();
 8001472:	f7ff fa2b 	bl	80008cc <HAL_GetTick>

    huart->RxXferSize = Size;
    huart->RxXferCount = Size;

    /* Computation of UART mask to apply to RDR register */
    UART_MASK_COMPUTATION(huart);
 8001476:	68a3      	ldr	r3, [r4, #8]
    huart->RxXferSize = Size;
 8001478:	f8a4 1058 	strh.w	r1, [r4, #88]	; 0x58
    UART_MASK_COMPUTATION(huart);
 800147c:	f5b3 5f80 	cmp.w	r3, #4096	; 0x1000
    tickstart = HAL_GetTick();
 8001480:	4680      	mov	r8, r0
    huart->RxXferCount = Size;
 8001482:	f8a4 105a 	strh.w	r1, [r4, #90]	; 0x5a
    UART_MASK_COMPUTATION(huart);
 8001486:	d115      	bne.n	80014b4 <HAL_UART_Receive+0x7e>
 8001488:	6923      	ldr	r3, [r4, #16]
 800148a:	b98b      	cbnz	r3, 80014b0 <HAL_UART_Receive+0x7a>
 800148c:	f240 13ff 	movw	r3, #511	; 0x1ff
 8001490:	f8a4 305c 	strh.w	r3, [r4, #92]	; 0x5c
    uhMask = huart->Mask;
 8001494:	f8b4 705c 	ldrh.w	r7, [r4, #92]	; 0x5c

    /* as long as data have to be received */
    while(huart->RxXferCount > 0U)
 8001498:	f8b4 005a 	ldrh.w	r0, [r4, #90]	; 0x5a
 800149c:	b280      	uxth	r0, r0
 800149e:	b980      	cbnz	r0, 80014c2 <HAL_UART_Receive+0x8c>
        *pData++ = (uint8_t)(huart->Instance->RDR & (uint8_t)uhMask);
      }
    }

    /* At end of Rx process, restore huart->RxState to Ready */
    huart->RxState = HAL_UART_STATE_READY;
 80014a0:	2320      	movs	r3, #32
 80014a2:	f884 306a 	strb.w	r3, [r4, #106]	; 0x6a

    /* Process Unlocked */
    __HAL_UNLOCK(huart);
 80014a6:	f884 0068 	strb.w	r0, [r4, #104]	; 0x68
  }
  else
  {
    return HAL_BUSY;
  }
}
 80014aa:	b002      	add	sp, #8
 80014ac:	e8bd 81f0 	ldmia.w	sp!, {r4, r5, r6, r7, r8, pc}
    UART_MASK_COMPUTATION(huart);
 80014b0:	23ff      	movs	r3, #255	; 0xff
 80014b2:	e7ed      	b.n	8001490 <HAL_UART_Receive+0x5a>
 80014b4:	2b00      	cmp	r3, #0
 80014b6:	d1ed      	bne.n	8001494 <HAL_UART_Receive+0x5e>
 80014b8:	6923      	ldr	r3, [r4, #16]
 80014ba:	2b00      	cmp	r3, #0
 80014bc:	d0f8      	beq.n	80014b0 <HAL_UART_Receive+0x7a>
 80014be:	237f      	movs	r3, #127	; 0x7f
 80014c0:	e7e6      	b.n	8001490 <HAL_UART_Receive+0x5a>
      huart->RxXferCount--;
 80014c2:	f8b4 205a 	ldrh.w	r2, [r4, #90]	; 0x5a
      if(UART_WaitOnFlagUntilTimeout(huart, UART_FLAG_RXNE, RESET, tickstart, Timeout) != HAL_OK)
 80014c6:	9600      	str	r6, [sp, #0]
      huart->RxXferCount--;
 80014c8:	3a01      	subs	r2, #1
 80014ca:	b292      	uxth	r2, r2
 80014cc:	f8a4 205a 	strh.w	r2, [r4, #90]	; 0x5a
      if(UART_WaitOnFlagUntilTimeout(huart, UART_FLAG_RXNE, RESET, tickstart, Timeout) != HAL_OK)
 80014d0:	4643      	mov	r3, r8
 80014d2:	2200      	movs	r2, #0
 80014d4:	2120      	movs	r1, #32
 80014d6:	4620      	mov	r0, r4
 80014d8:	f7ff fece 	bl	8001278 <UART_WaitOnFlagUntilTimeout>
 80014dc:	b9a0      	cbnz	r0, 8001508 <HAL_UART_Receive+0xd2>
      if ((huart->Init.WordLength == UART_WORDLENGTH_9B) && (huart->Init.Parity == UART_PARITY_NONE))
 80014de:	68a2      	ldr	r2, [r4, #8]
        *tmp = (uint16_t)(huart->Instance->RDR & uhMask);
 80014e0:	6823      	ldr	r3, [r4, #0]
      if ((huart->Init.WordLength == UART_WORDLENGTH_9B) && (huart->Init.Parity == UART_PARITY_NONE))
 80014e2:	f5b2 5f80 	cmp.w	r2, #4096	; 0x1000
 80014e6:	d106      	bne.n	80014f6 <HAL_UART_Receive+0xc0>
 80014e8:	6922      	ldr	r2, [r4, #16]
 80014ea:	b922      	cbnz	r2, 80014f6 <HAL_UART_Receive+0xc0>
        *tmp = (uint16_t)(huart->Instance->RDR & uhMask);
 80014ec:	8c9b      	ldrh	r3, [r3, #36]	; 0x24
 80014ee:	403b      	ands	r3, r7
 80014f0:	f825 3b02 	strh.w	r3, [r5], #2
        pData +=2U;
 80014f4:	e7d0      	b.n	8001498 <HAL_UART_Receive+0x62>
        *pData++ = (uint8_t)(huart->Instance->RDR & (uint8_t)uhMask);
 80014f6:	8c9b      	ldrh	r3, [r3, #36]	; 0x24
 80014f8:	403b      	ands	r3, r7
 80014fa:	f805 3b01 	strb.w	r3, [r5], #1
 80014fe:	e7cb      	b.n	8001498 <HAL_UART_Receive+0x62>
      return  HAL_ERROR;
 8001500:	2001      	movs	r0, #1
 8001502:	e7d2      	b.n	80014aa <HAL_UART_Receive+0x74>
    return HAL_BUSY;
 8001504:	2002      	movs	r0, #2
 8001506:	e7d0      	b.n	80014aa <HAL_UART_Receive+0x74>
        return HAL_TIMEOUT;
 8001508:	2003      	movs	r0, #3
 800150a:	e7ce      	b.n	80014aa <HAL_UART_Receive+0x74>

0800150c <_sbrk>:
{
	extern char end asm("end");
	static char *heap_end;
	char *prev_heap_end;

	if (heap_end == 0)
 800150c:	4a0a      	ldr	r2, [pc, #40]	; (8001538 <_sbrk+0x2c>)
 800150e:	6811      	ldr	r1, [r2, #0]
{
 8001510:	b508      	push	{r3, lr}
 8001512:	4603      	mov	r3, r0
	if (heap_end == 0)
 8001514:	b909      	cbnz	r1, 800151a <_sbrk+0xe>
		heap_end = &end;
 8001516:	4909      	ldr	r1, [pc, #36]	; (800153c <_sbrk+0x30>)
 8001518:	6011      	str	r1, [r2, #0]

	prev_heap_end = heap_end;
 800151a:	6810      	ldr	r0, [r2, #0]
	if (heap_end + incr > stack_ptr)
 800151c:	4669      	mov	r1, sp
 800151e:	4403      	add	r3, r0
 8001520:	428b      	cmp	r3, r1
 8001522:	d906      	bls.n	8001532 <_sbrk+0x26>
	{
		errno = ENOMEM;
 8001524:	f000 f832 	bl	800158c <__errno>
 8001528:	230c      	movs	r3, #12
 800152a:	6003      	str	r3, [r0, #0]
		return (caddr_t) -1;
 800152c:	f04f 30ff 	mov.w	r0, #4294967295
	}

	heap_end += incr;

	return (caddr_t) prev_heap_end;
}
 8001530:	bd08      	pop	{r3, pc}
	heap_end += incr;
 8001532:	6013      	str	r3, [r2, #0]
	return (caddr_t) prev_heap_end;
 8001534:	e7fc      	b.n	8001530 <_sbrk+0x24>
 8001536:	bf00      	nop
 8001538:	2000020c 	.word	0x2000020c
 800153c:	20000220 	.word	0x20000220

08001540 <Reset_Handler>:
 8001540:	2100      	movs	r1, #0
 8001542:	e003      	b.n	800154c <LoopCopyDataInit>

08001544 <CopyDataInit>:
 8001544:	4b0b      	ldr	r3, [pc, #44]	; (8001574 <LoopForever+0x2>)
 8001546:	585b      	ldr	r3, [r3, r1]
 8001548:	5043      	str	r3, [r0, r1]
 800154a:	3104      	adds	r1, #4

0800154c <LoopCopyDataInit>:
 800154c:	480a      	ldr	r0, [pc, #40]	; (8001578 <LoopForever+0x6>)
 800154e:	4b0b      	ldr	r3, [pc, #44]	; (800157c <LoopForever+0xa>)
 8001550:	1842      	adds	r2, r0, r1
 8001552:	429a      	cmp	r2, r3
 8001554:	d3f6      	bcc.n	8001544 <CopyDataInit>
 8001556:	4a0a      	ldr	r2, [pc, #40]	; (8001580 <LoopForever+0xe>)
 8001558:	e002      	b.n	8001560 <LoopFillZerobss>

0800155a <FillZerobss>:
 800155a:	2300      	movs	r3, #0
 800155c:	6013      	str	r3, [r2, #0]
 800155e:	3204      	adds	r2, #4

08001560 <LoopFillZerobss>:
 8001560:	4b08      	ldr	r3, [pc, #32]	; (8001584 <LoopForever+0x12>)
 8001562:	429a      	cmp	r2, r3
 8001564:	d3f9      	bcc.n	800155a <FillZerobss>
 8001566:	f3af 8000 	nop.w
 800156a:	f000 f815 	bl	8001598 <__libc_init_array>
 800156e:	f7fe ff8d 	bl	800048c <main>

08001572 <LoopForever>:
 8001572:	e7fe      	b.n	8001572 <LoopForever>
 8001574:	08001974 	.word	0x08001974
 8001578:	20000000 	.word	0x20000000
 800157c:	20000064 	.word	0x20000064
 8001580:	20000064 	.word	0x20000064
 8001584:	20000220 	.word	0x20000220

08001588 <BusFault_Handler>:
 8001588:	e7fe      	b.n	8001588 <BusFault_Handler>
 800158a:	0000      	movs	r0, r0

0800158c <__errno>:
 800158c:	4b01      	ldr	r3, [pc, #4]	; (8001594 <__errno+0x8>)
 800158e:	6818      	ldr	r0, [r3, #0]
 8001590:	4770      	bx	lr
 8001592:	bf00      	nop
 8001594:	20000000 	.word	0x20000000

08001598 <__libc_init_array>:
 8001598:	b570      	push	{r4, r5, r6, lr}
 800159a:	4d0d      	ldr	r5, [pc, #52]	; (80015d0 <__libc_init_array+0x38>)
 800159c:	4c0d      	ldr	r4, [pc, #52]	; (80015d4 <__libc_init_array+0x3c>)
 800159e:	1b64      	subs	r4, r4, r5
 80015a0:	10a4      	asrs	r4, r4, #2
 80015a2:	2600      	movs	r6, #0
 80015a4:	42a6      	cmp	r6, r4
 80015a6:	d109      	bne.n	80015bc <__libc_init_array+0x24>
 80015a8:	4d0b      	ldr	r5, [pc, #44]	; (80015d8 <__libc_init_array+0x40>)
 80015aa:	4c0c      	ldr	r4, [pc, #48]	; (80015dc <__libc_init_array+0x44>)
 80015ac:	f000 f900 	bl	80017b0 <_init>
 80015b0:	1b64      	subs	r4, r4, r5
 80015b2:	10a4      	asrs	r4, r4, #2
 80015b4:	2600      	movs	r6, #0
 80015b6:	42a6      	cmp	r6, r4
 80015b8:	d105      	bne.n	80015c6 <__libc_init_array+0x2e>
 80015ba:	bd70      	pop	{r4, r5, r6, pc}
 80015bc:	f855 3b04 	ldr.w	r3, [r5], #4
 80015c0:	4798      	blx	r3
 80015c2:	3601      	adds	r6, #1
 80015c4:	e7ee      	b.n	80015a4 <__libc_init_array+0xc>
 80015c6:	f855 3b04 	ldr.w	r3, [r5], #4
 80015ca:	4798      	blx	r3
 80015cc:	3601      	adds	r6, #1
 80015ce:	e7f2      	b.n	80015b6 <__libc_init_array+0x1e>
 80015d0:	0800196c 	.word	0x0800196c
 80015d4:	0800196c 	.word	0x0800196c
 80015d8:	0800196c 	.word	0x0800196c
 80015dc:	08001970 	.word	0x08001970

080015e0 <malloc>:
 80015e0:	4b02      	ldr	r3, [pc, #8]	; (80015ec <malloc+0xc>)
 80015e2:	4601      	mov	r1, r0
 80015e4:	6818      	ldr	r0, [r3, #0]
 80015e6:	f000 b86b 	b.w	80016c0 <_malloc_r>
 80015ea:	bf00      	nop
 80015ec:	20000000 	.word	0x20000000

080015f0 <free>:
 80015f0:	4b02      	ldr	r3, [pc, #8]	; (80015fc <free+0xc>)
 80015f2:	4601      	mov	r1, r0
 80015f4:	6818      	ldr	r0, [r3, #0]
 80015f6:	f000 b819 	b.w	800162c <_free_r>
 80015fa:	bf00      	nop
 80015fc:	20000000 	.word	0x20000000

08001600 <memcpy>:
 8001600:	440a      	add	r2, r1
 8001602:	4291      	cmp	r1, r2
 8001604:	f100 33ff 	add.w	r3, r0, #4294967295
 8001608:	d100      	bne.n	800160c <memcpy+0xc>
 800160a:	4770      	bx	lr
 800160c:	b510      	push	{r4, lr}
 800160e:	f811 4b01 	ldrb.w	r4, [r1], #1
 8001612:	f803 4f01 	strb.w	r4, [r3, #1]!
 8001616:	4291      	cmp	r1, r2
 8001618:	d1f9      	bne.n	800160e <memcpy+0xe>
 800161a:	bd10      	pop	{r4, pc}

0800161c <memset>:
 800161c:	4402      	add	r2, r0
 800161e:	4603      	mov	r3, r0
 8001620:	4293      	cmp	r3, r2
 8001622:	d100      	bne.n	8001626 <memset+0xa>
 8001624:	4770      	bx	lr
 8001626:	f803 1b01 	strb.w	r1, [r3], #1
 800162a:	e7f9      	b.n	8001620 <memset+0x4>

0800162c <_free_r>:
 800162c:	b538      	push	{r3, r4, r5, lr}
 800162e:	4605      	mov	r5, r0
 8001630:	2900      	cmp	r1, #0
 8001632:	d041      	beq.n	80016b8 <_free_r+0x8c>
 8001634:	f851 3c04 	ldr.w	r3, [r1, #-4]
 8001638:	1f0c      	subs	r4, r1, #4
 800163a:	2b00      	cmp	r3, #0
 800163c:	bfb8      	it	lt
 800163e:	18e4      	addlt	r4, r4, r3
 8001640:	f000 f8a8 	bl	8001794 <__malloc_lock>
 8001644:	4a1d      	ldr	r2, [pc, #116]	; (80016bc <_free_r+0x90>)
 8001646:	6813      	ldr	r3, [r2, #0]
 8001648:	b933      	cbnz	r3, 8001658 <_free_r+0x2c>
 800164a:	6063      	str	r3, [r4, #4]
 800164c:	6014      	str	r4, [r2, #0]
 800164e:	4628      	mov	r0, r5
 8001650:	e8bd 4038 	ldmia.w	sp!, {r3, r4, r5, lr}
 8001654:	f000 b8a4 	b.w	80017a0 <__malloc_unlock>
 8001658:	42a3      	cmp	r3, r4
 800165a:	d908      	bls.n	800166e <_free_r+0x42>
 800165c:	6820      	ldr	r0, [r4, #0]
 800165e:	1821      	adds	r1, r4, r0
 8001660:	428b      	cmp	r3, r1
 8001662:	bf01      	itttt	eq
 8001664:	6819      	ldreq	r1, [r3, #0]
 8001666:	685b      	ldreq	r3, [r3, #4]
 8001668:	1809      	addeq	r1, r1, r0
 800166a:	6021      	streq	r1, [r4, #0]
 800166c:	e7ed      	b.n	800164a <_free_r+0x1e>
 800166e:	461a      	mov	r2, r3
 8001670:	685b      	ldr	r3, [r3, #4]
 8001672:	b10b      	cbz	r3, 8001678 <_free_r+0x4c>
 8001674:	42a3      	cmp	r3, r4
 8001676:	d9fa      	bls.n	800166e <_free_r+0x42>
 8001678:	6811      	ldr	r1, [r2, #0]
 800167a:	1850      	adds	r0, r2, r1
 800167c:	42a0      	cmp	r0, r4
 800167e:	d10b      	bne.n	8001698 <_free_r+0x6c>
 8001680:	6820      	ldr	r0, [r4, #0]
 8001682:	4401      	add	r1, r0
 8001684:	1850      	adds	r0, r2, r1
 8001686:	4283      	cmp	r3, r0
 8001688:	6011      	str	r1, [r2, #0]
 800168a:	d1e0      	bne.n	800164e <_free_r+0x22>
 800168c:	6818      	ldr	r0, [r3, #0]
 800168e:	685b      	ldr	r3, [r3, #4]
 8001690:	6053      	str	r3, [r2, #4]
 8001692:	4401      	add	r1, r0
 8001694:	6011      	str	r1, [r2, #0]
 8001696:	e7da      	b.n	800164e <_free_r+0x22>
 8001698:	d902      	bls.n	80016a0 <_free_r+0x74>
 800169a:	230c      	movs	r3, #12
 800169c:	602b      	str	r3, [r5, #0]
 800169e:	e7d6      	b.n	800164e <_free_r+0x22>
 80016a0:	6820      	ldr	r0, [r4, #0]
 80016a2:	1821      	adds	r1, r4, r0
 80016a4:	428b      	cmp	r3, r1
 80016a6:	bf04      	itt	eq
 80016a8:	6819      	ldreq	r1, [r3, #0]
 80016aa:	685b      	ldreq	r3, [r3, #4]
 80016ac:	6063      	str	r3, [r4, #4]
 80016ae:	bf04      	itt	eq
 80016b0:	1809      	addeq	r1, r1, r0
 80016b2:	6021      	streq	r1, [r4, #0]
 80016b4:	6054      	str	r4, [r2, #4]
 80016b6:	e7ca      	b.n	800164e <_free_r+0x22>
 80016b8:	bd38      	pop	{r3, r4, r5, pc}
 80016ba:	bf00      	nop
 80016bc:	20000210 	.word	0x20000210

080016c0 <_malloc_r>:
 80016c0:	b5f8      	push	{r3, r4, r5, r6, r7, lr}
 80016c2:	1ccd      	adds	r5, r1, #3
 80016c4:	f025 0503 	bic.w	r5, r5, #3
 80016c8:	3508      	adds	r5, #8
 80016ca:	2d0c      	cmp	r5, #12
 80016cc:	bf38      	it	cc
 80016ce:	250c      	movcc	r5, #12
 80016d0:	2d00      	cmp	r5, #0
 80016d2:	4606      	mov	r6, r0
 80016d4:	db01      	blt.n	80016da <_malloc_r+0x1a>
 80016d6:	42a9      	cmp	r1, r5
 80016d8:	d903      	bls.n	80016e2 <_malloc_r+0x22>
 80016da:	230c      	movs	r3, #12
 80016dc:	6033      	str	r3, [r6, #0]
 80016de:	2000      	movs	r0, #0
 80016e0:	bdf8      	pop	{r3, r4, r5, r6, r7, pc}
 80016e2:	f000 f857 	bl	8001794 <__malloc_lock>
 80016e6:	4921      	ldr	r1, [pc, #132]	; (800176c <_malloc_r+0xac>)
 80016e8:	680a      	ldr	r2, [r1, #0]
 80016ea:	4614      	mov	r4, r2
 80016ec:	b99c      	cbnz	r4, 8001716 <_malloc_r+0x56>
 80016ee:	4f20      	ldr	r7, [pc, #128]	; (8001770 <_malloc_r+0xb0>)
 80016f0:	683b      	ldr	r3, [r7, #0]
 80016f2:	b923      	cbnz	r3, 80016fe <_malloc_r+0x3e>
 80016f4:	4621      	mov	r1, r4
 80016f6:	4630      	mov	r0, r6
 80016f8:	f000 f83c 	bl	8001774 <_sbrk_r>
 80016fc:	6038      	str	r0, [r7, #0]
 80016fe:	4629      	mov	r1, r5
 8001700:	4630      	mov	r0, r6
 8001702:	f000 f837 	bl	8001774 <_sbrk_r>
 8001706:	1c43      	adds	r3, r0, #1
 8001708:	d123      	bne.n	8001752 <_malloc_r+0x92>
 800170a:	230c      	movs	r3, #12
 800170c:	6033      	str	r3, [r6, #0]
 800170e:	4630      	mov	r0, r6
 8001710:	f000 f846 	bl	80017a0 <__malloc_unlock>
 8001714:	e7e3      	b.n	80016de <_malloc_r+0x1e>
 8001716:	6823      	ldr	r3, [r4, #0]
 8001718:	1b5b      	subs	r3, r3, r5
 800171a:	d417      	bmi.n	800174c <_malloc_r+0x8c>
 800171c:	2b0b      	cmp	r3, #11
 800171e:	d903      	bls.n	8001728 <_malloc_r+0x68>
 8001720:	6023      	str	r3, [r4, #0]
 8001722:	441c      	add	r4, r3
 8001724:	6025      	str	r5, [r4, #0]
 8001726:	e004      	b.n	8001732 <_malloc_r+0x72>
 8001728:	6863      	ldr	r3, [r4, #4]
 800172a:	42a2      	cmp	r2, r4
 800172c:	bf0c      	ite	eq
 800172e:	600b      	streq	r3, [r1, #0]
 8001730:	6053      	strne	r3, [r2, #4]
 8001732:	4630      	mov	r0, r6
 8001734:	f000 f834 	bl	80017a0 <__malloc_unlock>
 8001738:	f104 000b 	add.w	r0, r4, #11
 800173c:	1d23      	adds	r3, r4, #4
 800173e:	f020 0007 	bic.w	r0, r0, #7
 8001742:	1ac2      	subs	r2, r0, r3
 8001744:	d0cc      	beq.n	80016e0 <_malloc_r+0x20>
 8001746:	1a1b      	subs	r3, r3, r0
 8001748:	50a3      	str	r3, [r4, r2]
 800174a:	e7c9      	b.n	80016e0 <_malloc_r+0x20>
 800174c:	4622      	mov	r2, r4
 800174e:	6864      	ldr	r4, [r4, #4]
 8001750:	e7cc      	b.n	80016ec <_malloc_r+0x2c>
 8001752:	1cc4      	adds	r4, r0, #3
 8001754:	f024 0403 	bic.w	r4, r4, #3
 8001758:	42a0      	cmp	r0, r4
 800175a:	d0e3      	beq.n	8001724 <_malloc_r+0x64>
 800175c:	1a21      	subs	r1, r4, r0
 800175e:	4630      	mov	r0, r6
 8001760:	f000 f808 	bl	8001774 <_sbrk_r>
 8001764:	3001      	adds	r0, #1
 8001766:	d1dd      	bne.n	8001724 <_malloc_r+0x64>
 8001768:	e7cf      	b.n	800170a <_malloc_r+0x4a>
 800176a:	bf00      	nop
 800176c:	20000210 	.word	0x20000210
 8001770:	20000214 	.word	0x20000214

08001774 <_sbrk_r>:
 8001774:	b538      	push	{r3, r4, r5, lr}
 8001776:	4d06      	ldr	r5, [pc, #24]	; (8001790 <_sbrk_r+0x1c>)
 8001778:	2300      	movs	r3, #0
 800177a:	4604      	mov	r4, r0
 800177c:	4608      	mov	r0, r1
 800177e:	602b      	str	r3, [r5, #0]
 8001780:	f7ff fec4 	bl	800150c <_sbrk>
 8001784:	1c43      	adds	r3, r0, #1
 8001786:	d102      	bne.n	800178e <_sbrk_r+0x1a>
 8001788:	682b      	ldr	r3, [r5, #0]
 800178a:	b103      	cbz	r3, 800178e <_sbrk_r+0x1a>
 800178c:	6023      	str	r3, [r4, #0]
 800178e:	bd38      	pop	{r3, r4, r5, pc}
 8001790:	20000218 	.word	0x20000218

08001794 <__malloc_lock>:
 8001794:	4801      	ldr	r0, [pc, #4]	; (800179c <__malloc_lock+0x8>)
 8001796:	f000 b809 	b.w	80017ac <__retarget_lock_acquire_recursive>
 800179a:	bf00      	nop
 800179c:	2000021c 	.word	0x2000021c

080017a0 <__malloc_unlock>:
 80017a0:	4801      	ldr	r0, [pc, #4]	; (80017a8 <__malloc_unlock+0x8>)
 80017a2:	f000 b804 	b.w	80017ae <__retarget_lock_release_recursive>
 80017a6:	bf00      	nop
 80017a8:	2000021c 	.word	0x2000021c

080017ac <__retarget_lock_acquire_recursive>:
 80017ac:	4770      	bx	lr

080017ae <__retarget_lock_release_recursive>:
 80017ae:	4770      	bx	lr

080017b0 <_init>:
 80017b0:	b5f8      	push	{r3, r4, r5, r6, r7, lr}
 80017b2:	bf00      	nop
 80017b4:	bcf8      	pop	{r3, r4, r5, r6, r7}
 80017b6:	bc08      	pop	{r3}
 80017b8:	469e      	mov	lr, r3
 80017ba:	4770      	bx	lr

080017bc <_fini>:
 80017bc:	b5f8      	push	{r3, r4, r5, r6, r7, lr}
 80017be:	bf00      	nop
 80017c0:	bcf8      	pop	{r3, r4, r5, r6, r7}
 80017c2:	bc08      	pop	{r3}
 80017c4:	469e      	mov	lr, r3
 80017c6:	4770      	bx	lr
